
Drivers.elf:     file format elf32-littlearm

Sections:
Idx Name          Size      VMA       LMA       File off  Algn
  0 .isr_vector   00000130  08000000  08000000  00010000  2**0
                  CONTENTS, ALLOC, LOAD, READONLY, DATA
  1 .text         00000ab0  08000130  08000130  00010130  2**2
                  CONTENTS, ALLOC, LOAD, READONLY, CODE
  2 .rodata       00000038  08000be0  08000be0  00010be0  2**2
                  CONTENTS, ALLOC, LOAD, READONLY, DATA
  3 .ARM.extab    00000000  08000c18  08000c18  00020020  2**0
                  CONTENTS
  4 .ARM          00000000  08000c18  08000c18  00020020  2**0
                  CONTENTS
  5 .preinit_array 00000000  08000c18  08000c18  00020020  2**0
                  CONTENTS, ALLOC, LOAD, DATA
  6 .init_array   00000004  08000c18  08000c18  00010c18  2**2
                  CONTENTS, ALLOC, LOAD, DATA
  7 .fini_array   00000004  08000c1c  08000c1c  00010c1c  2**2
                  CONTENTS, ALLOC, LOAD, DATA
  8 .data         00000020  20000000  08000c20  00020000  2**2
                  CONTENTS, ALLOC, LOAD, DATA
  9 .bss          00000020  20000020  08000c40  00020020  2**2
                  ALLOC
 10 ._user_heap_stack 00000600  20000040  08000c40  00020040  2**0
                  ALLOC
 11 .ARM.attributes 00000029  00000000  00000000  00020020  2**0
                  CONTENTS, READONLY
 12 .debug_info   000035a6  00000000  00000000  00020049  2**0
                  CONTENTS, READONLY, DEBUGGING
 13 .debug_abbrev 000009ca  00000000  00000000  000235ef  2**0
                  CONTENTS, READONLY, DEBUGGING
 14 .debug_aranges 00000170  00000000  00000000  00023fc0  2**3
                  CONTENTS, READONLY, DEBUGGING
 15 .debug_ranges 00000118  00000000  00000000  00024130  2**3
                  CONTENTS, READONLY, DEBUGGING
 16 .debug_macro  00002982  00000000  00000000  00024248  2**0
                  CONTENTS, READONLY, DEBUGGING
 17 .debug_line   00002397  00000000  00000000  00026bca  2**0
                  CONTENTS, READONLY, DEBUGGING
 18 .debug_str    00008e91  00000000  00000000  00028f61  2**0
                  CONTENTS, READONLY, DEBUGGING
 19 .comment      0000007b  00000000  00000000  00031df2  2**0
                  CONTENTS, READONLY
 20 .debug_frame  00000424  00000000  00000000  00031e70  2**2
                  CONTENTS, READONLY, DEBUGGING

Disassembly of section .text:

08000130 <__do_global_dtors_aux>:
 8000130:	b510      	push	{r4, lr}
 8000132:	4c05      	ldr	r4, [pc, #20]	; (8000148 <__do_global_dtors_aux+0x18>)
 8000134:	7823      	ldrb	r3, [r4, #0]
 8000136:	b933      	cbnz	r3, 8000146 <__do_global_dtors_aux+0x16>
 8000138:	4b04      	ldr	r3, [pc, #16]	; (800014c <__do_global_dtors_aux+0x1c>)
 800013a:	b113      	cbz	r3, 8000142 <__do_global_dtors_aux+0x12>
 800013c:	4804      	ldr	r0, [pc, #16]	; (8000150 <__do_global_dtors_aux+0x20>)
 800013e:	f3af 8000 	nop.w
 8000142:	2301      	movs	r3, #1
 8000144:	7023      	strb	r3, [r4, #0]
 8000146:	bd10      	pop	{r4, pc}
 8000148:	20000020 	.word	0x20000020
 800014c:	00000000 	.word	0x00000000
 8000150:	08000bc8 	.word	0x08000bc8

08000154 <frame_dummy>:
 8000154:	b508      	push	{r3, lr}
 8000156:	4b03      	ldr	r3, [pc, #12]	; (8000164 <frame_dummy+0x10>)
 8000158:	b11b      	cbz	r3, 8000162 <frame_dummy+0xe>
 800015a:	4903      	ldr	r1, [pc, #12]	; (8000168 <frame_dummy+0x14>)
 800015c:	4803      	ldr	r0, [pc, #12]	; (800016c <frame_dummy+0x18>)
 800015e:	f3af 8000 	nop.w
 8000162:	bd08      	pop	{r3, pc}
 8000164:	00000000 	.word	0x00000000
 8000168:	20000024 	.word	0x20000024
 800016c:	08000bc8 	.word	0x08000bc8

08000170 <keypad_Init>:
	for (i = 0; i < time; i++)
		for (j = 0; j < 255; j++)
			;
}

void keypad_Init() {
 8000170:	b580      	push	{r7, lr}
 8000172:	b082      	sub	sp, #8
 8000174:	af00      	add	r7, sp, #0
//	DataDir_KeypadPORT &= ~((1 << R0) | (1 << R1) | (1 << R2) | (1 << R3));
//	DataDir_KeypadPORT |= ((1 << C0) | (1 << C1) | (1 << C2) | (1 << C3));
//	KeypadPORT = 0xFF;
	GPIO_PinConfig_t PinCfg;

	PinCfg.GPIO_PinNumber = R0;
 8000176:	2301      	movs	r3, #1
 8000178:	80bb      	strh	r3, [r7, #4]
	PinCfg.GPIO_MODE = GPIO_MODE_OUTPUT_PP;
 800017a:	2304      	movs	r3, #4
 800017c:	71bb      	strb	r3, [r7, #6]
	PinCfg.GPIO_OUTPUT_SPEED = GPIO_SPEED_10M;
 800017e:	2301      	movs	r3, #1
 8000180:	71fb      	strb	r3, [r7, #7]
	MCAL_GPIO_Init(KeypadPORT, &PinCfg);
 8000182:	1d3b      	adds	r3, r7, #4
 8000184:	4619      	mov	r1, r3
 8000186:	482c      	ldr	r0, [pc, #176]	; (8000238 <keypad_Init+0xc8>)
 8000188:	f000 fb77 	bl	800087a <MCAL_GPIO_Init>

	PinCfg.GPIO_PinNumber = R1;
 800018c:	2302      	movs	r3, #2
 800018e:	80bb      	strh	r3, [r7, #4]
	PinCfg.GPIO_MODE = GPIO_MODE_OUTPUT_PP;
 8000190:	2304      	movs	r3, #4
 8000192:	71bb      	strb	r3, [r7, #6]
	PinCfg.GPIO_OUTPUT_SPEED = GPIO_SPEED_10M;
 8000194:	2301      	movs	r3, #1
 8000196:	71fb      	strb	r3, [r7, #7]
	MCAL_GPIO_Init(KeypadPORT, &PinCfg);
 8000198:	1d3b      	adds	r3, r7, #4
 800019a:	4619      	mov	r1, r3
 800019c:	4826      	ldr	r0, [pc, #152]	; (8000238 <keypad_Init+0xc8>)
 800019e:	f000 fb6c 	bl	800087a <MCAL_GPIO_Init>

	PinCfg.GPIO_PinNumber = R2;
 80001a2:	2308      	movs	r3, #8
 80001a4:	80bb      	strh	r3, [r7, #4]
	PinCfg.GPIO_MODE = GPIO_MODE_OUTPUT_PP;
 80001a6:	2304      	movs	r3, #4
 80001a8:	71bb      	strb	r3, [r7, #6]
	PinCfg.GPIO_OUTPUT_SPEED = GPIO_SPEED_10M;
 80001aa:	2301      	movs	r3, #1
 80001ac:	71fb      	strb	r3, [r7, #7]
	MCAL_GPIO_Init(KeypadPORT, &PinCfg);
 80001ae:	1d3b      	adds	r3, r7, #4
 80001b0:	4619      	mov	r1, r3
 80001b2:	4821      	ldr	r0, [pc, #132]	; (8000238 <keypad_Init+0xc8>)
 80001b4:	f000 fb61 	bl	800087a <MCAL_GPIO_Init>

	PinCfg.GPIO_PinNumber = R3;
 80001b8:	2310      	movs	r3, #16
 80001ba:	80bb      	strh	r3, [r7, #4]
	PinCfg.GPIO_MODE = GPIO_MODE_OUTPUT_PP;
 80001bc:	2304      	movs	r3, #4
 80001be:	71bb      	strb	r3, [r7, #6]
	PinCfg.GPIO_OUTPUT_SPEED = GPIO_SPEED_10M;
 80001c0:	2301      	movs	r3, #1
 80001c2:	71fb      	strb	r3, [r7, #7]
	MCAL_GPIO_Init(KeypadPORT, &PinCfg);
 80001c4:	1d3b      	adds	r3, r7, #4
 80001c6:	4619      	mov	r1, r3
 80001c8:	481b      	ldr	r0, [pc, #108]	; (8000238 <keypad_Init+0xc8>)
 80001ca:	f000 fb56 	bl	800087a <MCAL_GPIO_Init>

	PinCfg.GPIO_PinNumber = C0;
 80001ce:	2320      	movs	r3, #32
 80001d0:	80bb      	strh	r3, [r7, #4]
	PinCfg.GPIO_MODE = GPIO_MODE_OUTPUT_PP;
 80001d2:	2304      	movs	r3, #4
 80001d4:	71bb      	strb	r3, [r7, #6]
	PinCfg.GPIO_OUTPUT_SPEED = GPIO_SPEED_10M;
 80001d6:	2301      	movs	r3, #1
 80001d8:	71fb      	strb	r3, [r7, #7]
	MCAL_GPIO_Init(KeypadPORT, &PinCfg);
 80001da:	1d3b      	adds	r3, r7, #4
 80001dc:	4619      	mov	r1, r3
 80001de:	4816      	ldr	r0, [pc, #88]	; (8000238 <keypad_Init+0xc8>)
 80001e0:	f000 fb4b 	bl	800087a <MCAL_GPIO_Init>

	PinCfg.GPIO_PinNumber = C1;
 80001e4:	2340      	movs	r3, #64	; 0x40
 80001e6:	80bb      	strh	r3, [r7, #4]
	PinCfg.GPIO_MODE = GPIO_MODE_OUTPUT_PP;
 80001e8:	2304      	movs	r3, #4
 80001ea:	71bb      	strb	r3, [r7, #6]
	PinCfg.GPIO_OUTPUT_SPEED = GPIO_SPEED_10M;
 80001ec:	2301      	movs	r3, #1
 80001ee:	71fb      	strb	r3, [r7, #7]
	MCAL_GPIO_Init(KeypadPORT, &PinCfg);
 80001f0:	1d3b      	adds	r3, r7, #4
 80001f2:	4619      	mov	r1, r3
 80001f4:	4810      	ldr	r0, [pc, #64]	; (8000238 <keypad_Init+0xc8>)
 80001f6:	f000 fb40 	bl	800087a <MCAL_GPIO_Init>

	PinCfg.GPIO_PinNumber = C2;
 80001fa:	2380      	movs	r3, #128	; 0x80
 80001fc:	80bb      	strh	r3, [r7, #4]
	PinCfg.GPIO_MODE = GPIO_MODE_OUTPUT_PP;
 80001fe:	2304      	movs	r3, #4
 8000200:	71bb      	strb	r3, [r7, #6]
	PinCfg.GPIO_OUTPUT_SPEED = GPIO_SPEED_10M;
 8000202:	2301      	movs	r3, #1
 8000204:	71fb      	strb	r3, [r7, #7]
	MCAL_GPIO_Init(KeypadPORT, &PinCfg);
 8000206:	1d3b      	adds	r3, r7, #4
 8000208:	4619      	mov	r1, r3
 800020a:	480b      	ldr	r0, [pc, #44]	; (8000238 <keypad_Init+0xc8>)
 800020c:	f000 fb35 	bl	800087a <MCAL_GPIO_Init>

	PinCfg.GPIO_PinNumber = C3;
 8000210:	f44f 7380 	mov.w	r3, #256	; 0x100
 8000214:	80bb      	strh	r3, [r7, #4]
	PinCfg.GPIO_MODE = GPIO_MODE_OUTPUT_PP;
 8000216:	2304      	movs	r3, #4
 8000218:	71bb      	strb	r3, [r7, #6]
	PinCfg.GPIO_OUTPUT_SPEED = GPIO_SPEED_10M;
 800021a:	2301      	movs	r3, #1
 800021c:	71fb      	strb	r3, [r7, #7]
	MCAL_GPIO_Init(KeypadPORT, &PinCfg);
 800021e:	1d3b      	adds	r3, r7, #4
 8000220:	4619      	mov	r1, r3
 8000222:	4805      	ldr	r0, [pc, #20]	; (8000238 <keypad_Init+0xc8>)
 8000224:	f000 fb29 	bl	800087a <MCAL_GPIO_Init>
	MCAL_GPIO_WritePort(KeypadPORT, 0xFF);
 8000228:	21ff      	movs	r1, #255	; 0xff
 800022a:	4803      	ldr	r0, [pc, #12]	; (8000238 <keypad_Init+0xc8>)
 800022c:	f000 fbd2 	bl	80009d4 <MCAL_GPIO_WritePort>

}
 8000230:	bf00      	nop
 8000232:	3708      	adds	r7, #8
 8000234:	46bd      	mov	sp, r7
 8000236:	bd80      	pop	{r7, pc}
 8000238:	40010c00 	.word	0x40010c00

0800023c <keypad_GetKey>:

char keypad_GetKey() {
 800023c:	b580      	push	{r7, lr}
 800023e:	b082      	sub	sp, #8
 8000240:	af00      	add	r7, sp, #0
	int i, j;
	for (i = 0; i < 4; i++) {
 8000242:	2300      	movs	r3, #0
 8000244:	607b      	str	r3, [r7, #4]
 8000246:	e0b4      	b.n	80003b2 <keypad_GetKey+0x176>
//		KeypadPORT |= ((1 << Key_padCol[0]) | (1 << Key_padCol[1])
//				| (1 << Key_padCol[2]) | (1 << Key_padCol[3]));
//		KeypadPORT &= ~(1 << Key_padCol[i]);
		MCAL_GPIO_WritePin(KeypadPORT, Key_padCol[0], GPIO_PIN_SET);
 8000248:	4b5e      	ldr	r3, [pc, #376]	; (80003c4 <keypad_GetKey+0x188>)
 800024a:	681b      	ldr	r3, [r3, #0]
 800024c:	b29b      	uxth	r3, r3
 800024e:	2201      	movs	r2, #1
 8000250:	4619      	mov	r1, r3
 8000252:	485d      	ldr	r0, [pc, #372]	; (80003c8 <keypad_GetKey+0x18c>)
 8000254:	f000 fba7 	bl	80009a6 <MCAL_GPIO_WritePin>
		MCAL_GPIO_WritePin(KeypadPORT, Key_padCol[1], GPIO_PIN_SET);
 8000258:	4b5a      	ldr	r3, [pc, #360]	; (80003c4 <keypad_GetKey+0x188>)
 800025a:	685b      	ldr	r3, [r3, #4]
 800025c:	b29b      	uxth	r3, r3
 800025e:	2201      	movs	r2, #1
 8000260:	4619      	mov	r1, r3
 8000262:	4859      	ldr	r0, [pc, #356]	; (80003c8 <keypad_GetKey+0x18c>)
 8000264:	f000 fb9f 	bl	80009a6 <MCAL_GPIO_WritePin>
		MCAL_GPIO_WritePin(KeypadPORT, Key_padCol[2], GPIO_PIN_SET);
 8000268:	4b56      	ldr	r3, [pc, #344]	; (80003c4 <keypad_GetKey+0x188>)
 800026a:	689b      	ldr	r3, [r3, #8]
 800026c:	b29b      	uxth	r3, r3
 800026e:	2201      	movs	r2, #1
 8000270:	4619      	mov	r1, r3
 8000272:	4855      	ldr	r0, [pc, #340]	; (80003c8 <keypad_GetKey+0x18c>)
 8000274:	f000 fb97 	bl	80009a6 <MCAL_GPIO_WritePin>
		MCAL_GPIO_WritePin(KeypadPORT, Key_padCol[3], GPIO_PIN_SET);
 8000278:	4b52      	ldr	r3, [pc, #328]	; (80003c4 <keypad_GetKey+0x188>)
 800027a:	68db      	ldr	r3, [r3, #12]
 800027c:	b29b      	uxth	r3, r3
 800027e:	2201      	movs	r2, #1
 8000280:	4619      	mov	r1, r3
 8000282:	4851      	ldr	r0, [pc, #324]	; (80003c8 <keypad_GetKey+0x18c>)
 8000284:	f000 fb8f 	bl	80009a6 <MCAL_GPIO_WritePin>
		MCAL_GPIO_WritePin(KeypadPORT, Key_padCol[i], GPIO_PIN_RESET);
 8000288:	4a4e      	ldr	r2, [pc, #312]	; (80003c4 <keypad_GetKey+0x188>)
 800028a:	687b      	ldr	r3, [r7, #4]
 800028c:	f852 3023 	ldr.w	r3, [r2, r3, lsl #2]
 8000290:	b29b      	uxth	r3, r3
 8000292:	2200      	movs	r2, #0
 8000294:	4619      	mov	r1, r3
 8000296:	484c      	ldr	r0, [pc, #304]	; (80003c8 <keypad_GetKey+0x18c>)
 8000298:	f000 fb85 	bl	80009a6 <MCAL_GPIO_WritePin>
		for (j = 0; j < 4; j++) {
 800029c:	2300      	movs	r3, #0
 800029e:	603b      	str	r3, [r7, #0]
 80002a0:	e080      	b.n	80003a4 <keypad_GetKey+0x168>
			if (MCAL_GPIO_ReadPin(KeypadPORT, Key_padRow[j]) == 0) {
 80002a2:	4a4a      	ldr	r2, [pc, #296]	; (80003cc <keypad_GetKey+0x190>)
 80002a4:	683b      	ldr	r3, [r7, #0]
 80002a6:	f852 3023 	ldr.w	r3, [r2, r3, lsl #2]
 80002aa:	b29b      	uxth	r3, r3
 80002ac:	4619      	mov	r1, r3
 80002ae:	4846      	ldr	r0, [pc, #280]	; (80003c8 <keypad_GetKey+0x18c>)
 80002b0:	f000 fb62 	bl	8000978 <MCAL_GPIO_ReadPin>
 80002b4:	4603      	mov	r3, r0
 80002b6:	2b00      	cmp	r3, #0
 80002b8:	d171      	bne.n	800039e <keypad_GetKey+0x162>
				while (MCAL_GPIO_ReadPin(KeypadPORT, Key_padRow[j]) == 0)
 80002ba:	bf00      	nop
 80002bc:	4a43      	ldr	r2, [pc, #268]	; (80003cc <keypad_GetKey+0x190>)
 80002be:	683b      	ldr	r3, [r7, #0]
 80002c0:	f852 3023 	ldr.w	r3, [r2, r3, lsl #2]
 80002c4:	b29b      	uxth	r3, r3
 80002c6:	4619      	mov	r1, r3
 80002c8:	483f      	ldr	r0, [pc, #252]	; (80003c8 <keypad_GetKey+0x18c>)
 80002ca:	f000 fb55 	bl	8000978 <MCAL_GPIO_ReadPin>
 80002ce:	4603      	mov	r3, r0
 80002d0:	2b00      	cmp	r3, #0
 80002d2:	d0f3      	beq.n	80002bc <keypad_GetKey+0x80>
					;
				switch (i) {
 80002d4:	687b      	ldr	r3, [r7, #4]
 80002d6:	2b03      	cmp	r3, #3
 80002d8:	d861      	bhi.n	800039e <keypad_GetKey+0x162>
 80002da:	a201      	add	r2, pc, #4	; (adr r2, 80002e0 <keypad_GetKey+0xa4>)
 80002dc:	f852 f023 	ldr.w	pc, [r2, r3, lsl #2]
 80002e0:	080002f1 	.word	0x080002f1
 80002e4:	08000319 	.word	0x08000319
 80002e8:	08000341 	.word	0x08000341
 80002ec:	08000369 	.word	0x08000369
				case (0):
					if (j == 0)
 80002f0:	683b      	ldr	r3, [r7, #0]
 80002f2:	2b00      	cmp	r3, #0
 80002f4:	d101      	bne.n	80002fa <keypad_GetKey+0xbe>
						return '7';
 80002f6:	2337      	movs	r3, #55	; 0x37
 80002f8:	e060      	b.n	80003bc <keypad_GetKey+0x180>
					else if (j == 1)
 80002fa:	683b      	ldr	r3, [r7, #0]
 80002fc:	2b01      	cmp	r3, #1
 80002fe:	d101      	bne.n	8000304 <keypad_GetKey+0xc8>
						return '4';
 8000300:	2334      	movs	r3, #52	; 0x34
 8000302:	e05b      	b.n	80003bc <keypad_GetKey+0x180>
					else if (j == 2)
 8000304:	683b      	ldr	r3, [r7, #0]
 8000306:	2b02      	cmp	r3, #2
 8000308:	d101      	bne.n	800030e <keypad_GetKey+0xd2>
						return '1';
 800030a:	2331      	movs	r3, #49	; 0x31
 800030c:	e056      	b.n	80003bc <keypad_GetKey+0x180>
					else if (j == 3)
 800030e:	683b      	ldr	r3, [r7, #0]
 8000310:	2b03      	cmp	r3, #3
 8000312:	d13d      	bne.n	8000390 <keypad_GetKey+0x154>
						return '?';
 8000314:	233f      	movs	r3, #63	; 0x3f
 8000316:	e051      	b.n	80003bc <keypad_GetKey+0x180>
					break;
				case (1):
					if (j == 0)
 8000318:	683b      	ldr	r3, [r7, #0]
 800031a:	2b00      	cmp	r3, #0
 800031c:	d101      	bne.n	8000322 <keypad_GetKey+0xe6>
						return '8';
 800031e:	2338      	movs	r3, #56	; 0x38
 8000320:	e04c      	b.n	80003bc <keypad_GetKey+0x180>
					else if (j == 1)
 8000322:	683b      	ldr	r3, [r7, #0]
 8000324:	2b01      	cmp	r3, #1
 8000326:	d101      	bne.n	800032c <keypad_GetKey+0xf0>
						return '5';
 8000328:	2335      	movs	r3, #53	; 0x35
 800032a:	e047      	b.n	80003bc <keypad_GetKey+0x180>
					else if (j == 2)
 800032c:	683b      	ldr	r3, [r7, #0]
 800032e:	2b02      	cmp	r3, #2
 8000330:	d101      	bne.n	8000336 <keypad_GetKey+0xfa>
						return '2';
 8000332:	2332      	movs	r3, #50	; 0x32
 8000334:	e042      	b.n	80003bc <keypad_GetKey+0x180>
					else if (j == 3)
 8000336:	683b      	ldr	r3, [r7, #0]
 8000338:	2b03      	cmp	r3, #3
 800033a:	d12b      	bne.n	8000394 <keypad_GetKey+0x158>
						return '0';
 800033c:	2330      	movs	r3, #48	; 0x30
 800033e:	e03d      	b.n	80003bc <keypad_GetKey+0x180>
					break;
				case (2):
					if (j == 0)
 8000340:	683b      	ldr	r3, [r7, #0]
 8000342:	2b00      	cmp	r3, #0
 8000344:	d101      	bne.n	800034a <keypad_GetKey+0x10e>
						return '9';
 8000346:	2339      	movs	r3, #57	; 0x39
 8000348:	e038      	b.n	80003bc <keypad_GetKey+0x180>
					else if (j == 1)
 800034a:	683b      	ldr	r3, [r7, #0]
 800034c:	2b01      	cmp	r3, #1
 800034e:	d101      	bne.n	8000354 <keypad_GetKey+0x118>
						return '6';
 8000350:	2336      	movs	r3, #54	; 0x36
 8000352:	e033      	b.n	80003bc <keypad_GetKey+0x180>
					else if (j == 2)
 8000354:	683b      	ldr	r3, [r7, #0]
 8000356:	2b02      	cmp	r3, #2
 8000358:	d101      	bne.n	800035e <keypad_GetKey+0x122>
						return '3';
 800035a:	2333      	movs	r3, #51	; 0x33
 800035c:	e02e      	b.n	80003bc <keypad_GetKey+0x180>
					else if (j == 3)
 800035e:	683b      	ldr	r3, [r7, #0]
 8000360:	2b03      	cmp	r3, #3
 8000362:	d119      	bne.n	8000398 <keypad_GetKey+0x15c>
						return '=';
 8000364:	233d      	movs	r3, #61	; 0x3d
 8000366:	e029      	b.n	80003bc <keypad_GetKey+0x180>
					break;
				case (3):
					if (j == 0)
 8000368:	683b      	ldr	r3, [r7, #0]
 800036a:	2b00      	cmp	r3, #0
 800036c:	d101      	bne.n	8000372 <keypad_GetKey+0x136>
						return '/';
 800036e:	232f      	movs	r3, #47	; 0x2f
 8000370:	e024      	b.n	80003bc <keypad_GetKey+0x180>
					else if (j == 1)
 8000372:	683b      	ldr	r3, [r7, #0]
 8000374:	2b01      	cmp	r3, #1
 8000376:	d101      	bne.n	800037c <keypad_GetKey+0x140>
						return '*';
 8000378:	232a      	movs	r3, #42	; 0x2a
 800037a:	e01f      	b.n	80003bc <keypad_GetKey+0x180>
					else if (j == 2)
 800037c:	683b      	ldr	r3, [r7, #0]
 800037e:	2b02      	cmp	r3, #2
 8000380:	d101      	bne.n	8000386 <keypad_GetKey+0x14a>
						return '-';
 8000382:	232d      	movs	r3, #45	; 0x2d
 8000384:	e01a      	b.n	80003bc <keypad_GetKey+0x180>
					else if (j == 3)
 8000386:	683b      	ldr	r3, [r7, #0]
 8000388:	2b03      	cmp	r3, #3
 800038a:	d107      	bne.n	800039c <keypad_GetKey+0x160>
						return '+';
 800038c:	232b      	movs	r3, #43	; 0x2b
 800038e:	e015      	b.n	80003bc <keypad_GetKey+0x180>
					break;
 8000390:	bf00      	nop
 8000392:	e004      	b.n	800039e <keypad_GetKey+0x162>
					break;
 8000394:	bf00      	nop
 8000396:	e002      	b.n	800039e <keypad_GetKey+0x162>
					break;
 8000398:	bf00      	nop
 800039a:	e000      	b.n	800039e <keypad_GetKey+0x162>
					break;
 800039c:	bf00      	nop
		for (j = 0; j < 4; j++) {
 800039e:	683b      	ldr	r3, [r7, #0]
 80003a0:	3301      	adds	r3, #1
 80003a2:	603b      	str	r3, [r7, #0]
 80003a4:	683b      	ldr	r3, [r7, #0]
 80003a6:	2b03      	cmp	r3, #3
 80003a8:	f77f af7b 	ble.w	80002a2 <keypad_GetKey+0x66>
	for (i = 0; i < 4; i++) {
 80003ac:	687b      	ldr	r3, [r7, #4]
 80003ae:	3301      	adds	r3, #1
 80003b0:	607b      	str	r3, [r7, #4]
 80003b2:	687b      	ldr	r3, [r7, #4]
 80003b4:	2b03      	cmp	r3, #3
 80003b6:	f77f af47 	ble.w	8000248 <keypad_GetKey+0xc>
				}
			}
		}
	}
	return 'A';
 80003ba:	2341      	movs	r3, #65	; 0x41
}
 80003bc:	4618      	mov	r0, r3
 80003be:	3708      	adds	r7, #8
 80003c0:	46bd      	mov	sp, r7
 80003c2:	bd80      	pop	{r7, pc}
 80003c4:	20000010 	.word	0x20000010
 80003c8:	40010c00 	.word	0x40010c00
 80003cc:	20000000 	.word	0x20000000

080003d0 <delay_ms>:


#include "LCD.h"

static void delay_ms(uint32_t time)
{
 80003d0:	b480      	push	{r7}
 80003d2:	b085      	sub	sp, #20
 80003d4:	af00      	add	r7, sp, #0
 80003d6:	6078      	str	r0, [r7, #4]
	uint32_t i , j ;
	for(i = 0 ; i < time ; i++)
 80003d8:	2300      	movs	r3, #0
 80003da:	60fb      	str	r3, [r7, #12]
 80003dc:	e00b      	b.n	80003f6 <delay_ms+0x26>
	{
		for(j = 0 ; j < 255  ; j++);
 80003de:	2300      	movs	r3, #0
 80003e0:	60bb      	str	r3, [r7, #8]
 80003e2:	e002      	b.n	80003ea <delay_ms+0x1a>
 80003e4:	68bb      	ldr	r3, [r7, #8]
 80003e6:	3301      	adds	r3, #1
 80003e8:	60bb      	str	r3, [r7, #8]
 80003ea:	68bb      	ldr	r3, [r7, #8]
 80003ec:	2bfe      	cmp	r3, #254	; 0xfe
 80003ee:	d9f9      	bls.n	80003e4 <delay_ms+0x14>
	for(i = 0 ; i < time ; i++)
 80003f0:	68fb      	ldr	r3, [r7, #12]
 80003f2:	3301      	adds	r3, #1
 80003f4:	60fb      	str	r3, [r7, #12]
 80003f6:	68fa      	ldr	r2, [r7, #12]
 80003f8:	687b      	ldr	r3, [r7, #4]
 80003fa:	429a      	cmp	r2, r3
 80003fc:	d3ef      	bcc.n	80003de <delay_ms+0xe>
	}
}
 80003fe:	bf00      	nop
 8000400:	3714      	adds	r7, #20
 8000402:	46bd      	mov	sp, r7
 8000404:	bc80      	pop	{r7}
 8000406:	4770      	bx	lr

08000408 <LCD_GPIO_Init>:
/* ========================================== */
/*			 Functions Definitions 			  */
/* ========================================== */

void LCD_GPIO_Init()
{
 8000408:	b580      	push	{r7, lr}
 800040a:	af00      	add	r7, sp, #0

	/* ===========Set Control PINS to OUTPUT=========== */

	/* RS PIN config ==> OUTPUT */
	PinCfg.GPIO_PinNumber = RS_SWITCH;
 800040c:	4b52      	ldr	r3, [pc, #328]	; (8000558 <LCD_GPIO_Init+0x150>)
 800040e:	f44f 7280 	mov.w	r2, #256	; 0x100
 8000412:	801a      	strh	r2, [r3, #0]
	PinCfg.GPIO_MODE = GPIO_MODE_OUTPUT_PP;
 8000414:	4b50      	ldr	r3, [pc, #320]	; (8000558 <LCD_GPIO_Init+0x150>)
 8000416:	2204      	movs	r2, #4
 8000418:	709a      	strb	r2, [r3, #2]
	PinCfg.GPIO_OUTPUT_SPEED = GPIO_SPEED_10M;
 800041a:	4b4f      	ldr	r3, [pc, #316]	; (8000558 <LCD_GPIO_Init+0x150>)
 800041c:	2201      	movs	r2, #1
 800041e:	70da      	strb	r2, [r3, #3]
	MCAL_GPIO_Init(LCD_CTRL, &PinCfg);
 8000420:	494d      	ldr	r1, [pc, #308]	; (8000558 <LCD_GPIO_Init+0x150>)
 8000422:	484e      	ldr	r0, [pc, #312]	; (800055c <LCD_GPIO_Init+0x154>)
 8000424:	f000 fa29 	bl	800087a <MCAL_GPIO_Init>

	/* RW PIN config ==> OUTPUT */
	PinCfg.GPIO_PinNumber = RW_SWITCH;
 8000428:	4b4b      	ldr	r3, [pc, #300]	; (8000558 <LCD_GPIO_Init+0x150>)
 800042a:	f44f 7200 	mov.w	r2, #512	; 0x200
 800042e:	801a      	strh	r2, [r3, #0]
	PinCfg.GPIO_MODE = GPIO_MODE_OUTPUT_PP;
 8000430:	4b49      	ldr	r3, [pc, #292]	; (8000558 <LCD_GPIO_Init+0x150>)
 8000432:	2204      	movs	r2, #4
 8000434:	709a      	strb	r2, [r3, #2]
	PinCfg.GPIO_OUTPUT_SPEED = GPIO_SPEED_10M;
 8000436:	4b48      	ldr	r3, [pc, #288]	; (8000558 <LCD_GPIO_Init+0x150>)
 8000438:	2201      	movs	r2, #1
 800043a:	70da      	strb	r2, [r3, #3]
	MCAL_GPIO_Init(LCD_CTRL, &PinCfg);
 800043c:	4946      	ldr	r1, [pc, #280]	; (8000558 <LCD_GPIO_Init+0x150>)
 800043e:	4847      	ldr	r0, [pc, #284]	; (800055c <LCD_GPIO_Init+0x154>)
 8000440:	f000 fa1b 	bl	800087a <MCAL_GPIO_Init>

	/* EN PIN config ==> OUTPUT */
	PinCfg.GPIO_PinNumber = EN_SWITCH;
 8000444:	4b44      	ldr	r3, [pc, #272]	; (8000558 <LCD_GPIO_Init+0x150>)
 8000446:	f44f 6280 	mov.w	r2, #1024	; 0x400
 800044a:	801a      	strh	r2, [r3, #0]
	PinCfg.GPIO_MODE = GPIO_MODE_OUTPUT_PP;
 800044c:	4b42      	ldr	r3, [pc, #264]	; (8000558 <LCD_GPIO_Init+0x150>)
 800044e:	2204      	movs	r2, #4
 8000450:	709a      	strb	r2, [r3, #2]
	PinCfg.GPIO_OUTPUT_SPEED = GPIO_SPEED_10M;
 8000452:	4b41      	ldr	r3, [pc, #260]	; (8000558 <LCD_GPIO_Init+0x150>)
 8000454:	2201      	movs	r2, #1
 8000456:	70da      	strb	r2, [r3, #3]
	MCAL_GPIO_Init(LCD_CTRL, &PinCfg);
 8000458:	493f      	ldr	r1, [pc, #252]	; (8000558 <LCD_GPIO_Init+0x150>)
 800045a:	4840      	ldr	r0, [pc, #256]	; (800055c <LCD_GPIO_Init+0x154>)
 800045c:	f000 fa0d 	bl	800087a <MCAL_GPIO_Init>

	/* ===========Set LCD PORT PINS to OUTPUT=========== */

	PinCfg.GPIO_PinNumber = GPIO_PIN_0;
 8000460:	4b3d      	ldr	r3, [pc, #244]	; (8000558 <LCD_GPIO_Init+0x150>)
 8000462:	2201      	movs	r2, #1
 8000464:	801a      	strh	r2, [r3, #0]
	PinCfg.GPIO_MODE = GPIO_MODE_OUTPUT_PP;
 8000466:	4b3c      	ldr	r3, [pc, #240]	; (8000558 <LCD_GPIO_Init+0x150>)
 8000468:	2204      	movs	r2, #4
 800046a:	709a      	strb	r2, [r3, #2]
	PinCfg.GPIO_OUTPUT_SPEED = GPIO_SPEED_10M;
 800046c:	4b3a      	ldr	r3, [pc, #232]	; (8000558 <LCD_GPIO_Init+0x150>)
 800046e:	2201      	movs	r2, #1
 8000470:	70da      	strb	r2, [r3, #3]
	MCAL_GPIO_Init(LCD_CTRL, &PinCfg);
 8000472:	4939      	ldr	r1, [pc, #228]	; (8000558 <LCD_GPIO_Init+0x150>)
 8000474:	4839      	ldr	r0, [pc, #228]	; (800055c <LCD_GPIO_Init+0x154>)
 8000476:	f000 fa00 	bl	800087a <MCAL_GPIO_Init>

	PinCfg.GPIO_PinNumber = GPIO_PIN_1;
 800047a:	4b37      	ldr	r3, [pc, #220]	; (8000558 <LCD_GPIO_Init+0x150>)
 800047c:	2202      	movs	r2, #2
 800047e:	801a      	strh	r2, [r3, #0]
	PinCfg.GPIO_MODE = GPIO_MODE_OUTPUT_PP;
 8000480:	4b35      	ldr	r3, [pc, #212]	; (8000558 <LCD_GPIO_Init+0x150>)
 8000482:	2204      	movs	r2, #4
 8000484:	709a      	strb	r2, [r3, #2]
	PinCfg.GPIO_OUTPUT_SPEED = GPIO_SPEED_10M;
 8000486:	4b34      	ldr	r3, [pc, #208]	; (8000558 <LCD_GPIO_Init+0x150>)
 8000488:	2201      	movs	r2, #1
 800048a:	70da      	strb	r2, [r3, #3]
	MCAL_GPIO_Init(LCD_CTRL, &PinCfg);
 800048c:	4932      	ldr	r1, [pc, #200]	; (8000558 <LCD_GPIO_Init+0x150>)
 800048e:	4833      	ldr	r0, [pc, #204]	; (800055c <LCD_GPIO_Init+0x154>)
 8000490:	f000 f9f3 	bl	800087a <MCAL_GPIO_Init>

	PinCfg.GPIO_PinNumber = GPIO_PIN_2;
 8000494:	4b30      	ldr	r3, [pc, #192]	; (8000558 <LCD_GPIO_Init+0x150>)
 8000496:	2204      	movs	r2, #4
 8000498:	801a      	strh	r2, [r3, #0]
	PinCfg.GPIO_MODE = GPIO_MODE_OUTPUT_PP;
 800049a:	4b2f      	ldr	r3, [pc, #188]	; (8000558 <LCD_GPIO_Init+0x150>)
 800049c:	2204      	movs	r2, #4
 800049e:	709a      	strb	r2, [r3, #2]
	PinCfg.GPIO_OUTPUT_SPEED = GPIO_SPEED_10M;
 80004a0:	4b2d      	ldr	r3, [pc, #180]	; (8000558 <LCD_GPIO_Init+0x150>)
 80004a2:	2201      	movs	r2, #1
 80004a4:	70da      	strb	r2, [r3, #3]
	MCAL_GPIO_Init(LCD_CTRL, &PinCfg);
 80004a6:	492c      	ldr	r1, [pc, #176]	; (8000558 <LCD_GPIO_Init+0x150>)
 80004a8:	482c      	ldr	r0, [pc, #176]	; (800055c <LCD_GPIO_Init+0x154>)
 80004aa:	f000 f9e6 	bl	800087a <MCAL_GPIO_Init>

	PinCfg.GPIO_PinNumber = GPIO_PIN_3;
 80004ae:	4b2a      	ldr	r3, [pc, #168]	; (8000558 <LCD_GPIO_Init+0x150>)
 80004b0:	2208      	movs	r2, #8
 80004b2:	801a      	strh	r2, [r3, #0]
	PinCfg.GPIO_MODE = GPIO_MODE_OUTPUT_PP;
 80004b4:	4b28      	ldr	r3, [pc, #160]	; (8000558 <LCD_GPIO_Init+0x150>)
 80004b6:	2204      	movs	r2, #4
 80004b8:	709a      	strb	r2, [r3, #2]
	PinCfg.GPIO_OUTPUT_SPEED = GPIO_SPEED_10M;
 80004ba:	4b27      	ldr	r3, [pc, #156]	; (8000558 <LCD_GPIO_Init+0x150>)
 80004bc:	2201      	movs	r2, #1
 80004be:	70da      	strb	r2, [r3, #3]
	MCAL_GPIO_Init(LCD_CTRL, &PinCfg);
 80004c0:	4925      	ldr	r1, [pc, #148]	; (8000558 <LCD_GPIO_Init+0x150>)
 80004c2:	4826      	ldr	r0, [pc, #152]	; (800055c <LCD_GPIO_Init+0x154>)
 80004c4:	f000 f9d9 	bl	800087a <MCAL_GPIO_Init>

	PinCfg.GPIO_PinNumber = GPIO_PIN_4;
 80004c8:	4b23      	ldr	r3, [pc, #140]	; (8000558 <LCD_GPIO_Init+0x150>)
 80004ca:	2210      	movs	r2, #16
 80004cc:	801a      	strh	r2, [r3, #0]
	PinCfg.GPIO_MODE = GPIO_MODE_OUTPUT_PP;
 80004ce:	4b22      	ldr	r3, [pc, #136]	; (8000558 <LCD_GPIO_Init+0x150>)
 80004d0:	2204      	movs	r2, #4
 80004d2:	709a      	strb	r2, [r3, #2]
	PinCfg.GPIO_OUTPUT_SPEED = GPIO_SPEED_10M;
 80004d4:	4b20      	ldr	r3, [pc, #128]	; (8000558 <LCD_GPIO_Init+0x150>)
 80004d6:	2201      	movs	r2, #1
 80004d8:	70da      	strb	r2, [r3, #3]
	MCAL_GPIO_Init(LCD_CTRL, &PinCfg);
 80004da:	491f      	ldr	r1, [pc, #124]	; (8000558 <LCD_GPIO_Init+0x150>)
 80004dc:	481f      	ldr	r0, [pc, #124]	; (800055c <LCD_GPIO_Init+0x154>)
 80004de:	f000 f9cc 	bl	800087a <MCAL_GPIO_Init>

	PinCfg.GPIO_PinNumber = GPIO_PIN_5;
 80004e2:	4b1d      	ldr	r3, [pc, #116]	; (8000558 <LCD_GPIO_Init+0x150>)
 80004e4:	2220      	movs	r2, #32
 80004e6:	801a      	strh	r2, [r3, #0]
	PinCfg.GPIO_MODE = GPIO_MODE_OUTPUT_PP;
 80004e8:	4b1b      	ldr	r3, [pc, #108]	; (8000558 <LCD_GPIO_Init+0x150>)
 80004ea:	2204      	movs	r2, #4
 80004ec:	709a      	strb	r2, [r3, #2]
	PinCfg.GPIO_OUTPUT_SPEED = GPIO_SPEED_10M;
 80004ee:	4b1a      	ldr	r3, [pc, #104]	; (8000558 <LCD_GPIO_Init+0x150>)
 80004f0:	2201      	movs	r2, #1
 80004f2:	70da      	strb	r2, [r3, #3]
	MCAL_GPIO_Init(LCD_CTRL, &PinCfg);
 80004f4:	4918      	ldr	r1, [pc, #96]	; (8000558 <LCD_GPIO_Init+0x150>)
 80004f6:	4819      	ldr	r0, [pc, #100]	; (800055c <LCD_GPIO_Init+0x154>)
 80004f8:	f000 f9bf 	bl	800087a <MCAL_GPIO_Init>

	PinCfg.GPIO_PinNumber = GPIO_PIN_6;
 80004fc:	4b16      	ldr	r3, [pc, #88]	; (8000558 <LCD_GPIO_Init+0x150>)
 80004fe:	2240      	movs	r2, #64	; 0x40
 8000500:	801a      	strh	r2, [r3, #0]
	PinCfg.GPIO_MODE = GPIO_MODE_OUTPUT_PP;
 8000502:	4b15      	ldr	r3, [pc, #84]	; (8000558 <LCD_GPIO_Init+0x150>)
 8000504:	2204      	movs	r2, #4
 8000506:	709a      	strb	r2, [r3, #2]
	PinCfg.GPIO_OUTPUT_SPEED = GPIO_SPEED_10M;
 8000508:	4b13      	ldr	r3, [pc, #76]	; (8000558 <LCD_GPIO_Init+0x150>)
 800050a:	2201      	movs	r2, #1
 800050c:	70da      	strb	r2, [r3, #3]
	MCAL_GPIO_Init(LCD_CTRL, &PinCfg);
 800050e:	4912      	ldr	r1, [pc, #72]	; (8000558 <LCD_GPIO_Init+0x150>)
 8000510:	4812      	ldr	r0, [pc, #72]	; (800055c <LCD_GPIO_Init+0x154>)
 8000512:	f000 f9b2 	bl	800087a <MCAL_GPIO_Init>

	PinCfg.GPIO_PinNumber = GPIO_PIN_7;
 8000516:	4b10      	ldr	r3, [pc, #64]	; (8000558 <LCD_GPIO_Init+0x150>)
 8000518:	2280      	movs	r2, #128	; 0x80
 800051a:	801a      	strh	r2, [r3, #0]
	PinCfg.GPIO_MODE = GPIO_MODE_OUTPUT_PP;
 800051c:	4b0e      	ldr	r3, [pc, #56]	; (8000558 <LCD_GPIO_Init+0x150>)
 800051e:	2204      	movs	r2, #4
 8000520:	709a      	strb	r2, [r3, #2]
	PinCfg.GPIO_OUTPUT_SPEED = GPIO_SPEED_10M;
 8000522:	4b0d      	ldr	r3, [pc, #52]	; (8000558 <LCD_GPIO_Init+0x150>)
 8000524:	2201      	movs	r2, #1
 8000526:	70da      	strb	r2, [r3, #3]
	MCAL_GPIO_Init(LCD_CTRL, &PinCfg);
 8000528:	490b      	ldr	r1, [pc, #44]	; (8000558 <LCD_GPIO_Init+0x150>)
 800052a:	480c      	ldr	r0, [pc, #48]	; (800055c <LCD_GPIO_Init+0x154>)
 800052c:	f000 f9a5 	bl	800087a <MCAL_GPIO_Init>

	/* Set Control signal to Low (Sink current) */
	MCAL_GPIO_WritePin(LCD_CTRL, EN_SWITCH, GPIO_PIN_RESET);
 8000530:	2200      	movs	r2, #0
 8000532:	f44f 6180 	mov.w	r1, #1024	; 0x400
 8000536:	4809      	ldr	r0, [pc, #36]	; (800055c <LCD_GPIO_Init+0x154>)
 8000538:	f000 fa35 	bl	80009a6 <MCAL_GPIO_WritePin>
	MCAL_GPIO_WritePin(LCD_CTRL, RS_SWITCH, GPIO_PIN_RESET);
 800053c:	2200      	movs	r2, #0
 800053e:	f44f 7180 	mov.w	r1, #256	; 0x100
 8000542:	4806      	ldr	r0, [pc, #24]	; (800055c <LCD_GPIO_Init+0x154>)
 8000544:	f000 fa2f 	bl	80009a6 <MCAL_GPIO_WritePin>
	MCAL_GPIO_WritePin(LCD_CTRL, RW_SWITCH, GPIO_PIN_RESET);
 8000548:	2200      	movs	r2, #0
 800054a:	f44f 7100 	mov.w	r1, #512	; 0x200
 800054e:	4803      	ldr	r0, [pc, #12]	; (800055c <LCD_GPIO_Init+0x154>)
 8000550:	f000 fa29 	bl	80009a6 <MCAL_GPIO_WritePin>

}
 8000554:	bf00      	nop
 8000556:	bd80      	pop	{r7, pc}
 8000558:	2000003c 	.word	0x2000003c
 800055c:	40010800 	.word	0x40010800

08000560 <LCD_Init>:

void LCD_Init(void)
{
 8000560:	b580      	push	{r7, lr}
 8000562:	af00      	add	r7, sp, #0
	delay_ms(20);
 8000564:	2014      	movs	r0, #20
 8000566:	f7ff ff33 	bl	80003d0 <delay_ms>
	LCD_GPIO_Init();
 800056a:	f7ff ff4d 	bl	8000408 <LCD_GPIO_Init>
	delay_ms(15);
 800056e:	200f      	movs	r0, #15
 8000570:	f7ff ff2e 	bl	80003d0 <delay_ms>

	LCD_Clear_Screen();
 8000574:	f000 f894 	bl	80006a0 <LCD_Clear_Screen>


	#ifdef EIGHT_BIT_MODE
	LCD_Write_Command(LCD_FUNCTION_8BIT_2LINES);
 8000578:	2038      	movs	r0, #56	; 0x38
 800057a:	f000 f80b 	bl	8000594 <LCD_Write_Command>
	#ifdef FOUR_BIT_MODE
	LCD_Write_Command(0x02);
	LCD_Write_Command(LCD_FUNCTION_8BIT_2LINES);
	#endif

	LCD_Write_Command(LCD_ENTRY_MODE);
 800057e:	2006      	movs	r0, #6
 8000580:	f000 f808 	bl	8000594 <LCD_Write_Command>
	LCD_Write_Command(LCD_BEGIN_AT_FIRST_ROW);
 8000584:	2080      	movs	r0, #128	; 0x80
 8000586:	f000 f805 	bl	8000594 <LCD_Write_Command>
	LCD_Write_Command(LCD_DISP_ON_CURSOR_BLINK);
 800058a:	200f      	movs	r0, #15
 800058c:	f000 f802 	bl	8000594 <LCD_Write_Command>


}
 8000590:	bf00      	nop
 8000592:	bd80      	pop	{r7, pc}

08000594 <LCD_Write_Command>:
void LCD_Write_Command(uint8_t cmd)
{
 8000594:	b580      	push	{r7, lr}
 8000596:	b082      	sub	sp, #8
 8000598:	af00      	add	r7, sp, #0
 800059a:	4603      	mov	r3, r0
 800059c:	71fb      	strb	r3, [r7, #7]
	#ifdef EIGHT_BIT_MODE
	//LCD_Check_LCD_IsBusy();
	MCAL_GPIO_WritePort(LCD_CTRL, cmd);
 800059e:	79fb      	ldrb	r3, [r7, #7]
 80005a0:	b29b      	uxth	r3, r3
 80005a2:	4619      	mov	r1, r3
 80005a4:	480b      	ldr	r0, [pc, #44]	; (80005d4 <LCD_Write_Command+0x40>)
 80005a6:	f000 fa15 	bl	80009d4 <MCAL_GPIO_WritePort>
	//LCD_CTRL->BRR = (LCD_CTRL->BRR & 0x00FF) | (cmd);
	//LCD_CTRL->CRL ^= (LCD_CTRL->CRL ^cmd) & 0x00FF;
	//CD_CTRL->CRL = cmd;
	//LCD_CTRL ^= (LCD_CTRL-> ^cmd) & 0x00FF;
	/* Set as Write MODE ==> 0 */
	MCAL_GPIO_WritePin(LCD_CTRL, RW_SWITCH, GPIO_PIN_RESET);
 80005aa:	2200      	movs	r2, #0
 80005ac:	f44f 7100 	mov.w	r1, #512	; 0x200
 80005b0:	4808      	ldr	r0, [pc, #32]	; (80005d4 <LCD_Write_Command+0x40>)
 80005b2:	f000 f9f8 	bl	80009a6 <MCAL_GPIO_WritePin>
	/* Set as Command MODE ==> 0 */
	MCAL_GPIO_WritePin(LCD_CTRL, RS_SWITCH, GPIO_PIN_RESET);
 80005b6:	2200      	movs	r2, #0
 80005b8:	f44f 7180 	mov.w	r1, #256	; 0x100
 80005bc:	4805      	ldr	r0, [pc, #20]	; (80005d4 <LCD_Write_Command+0x40>)
 80005be:	f000 f9f2 	bl	80009a6 <MCAL_GPIO_WritePin>
	delay_ms(1);
 80005c2:	2001      	movs	r0, #1
 80005c4:	f7ff ff04 	bl	80003d0 <delay_ms>
	LCD_Lcd_kick();
 80005c8:	f000 f854 	bl	8000674 <LCD_Lcd_kick>
	MCAL_GPIO_WritePin(LCD_CTRL, RS_SWITCH, GPIO_PIN_RESET);
	delay_ms(1);
	LCD_Lcd_kick();
	#endif

}
 80005cc:	bf00      	nop
 80005ce:	3708      	adds	r7, #8
 80005d0:	46bd      	mov	sp, r7
 80005d2:	bd80      	pop	{r7, pc}
 80005d4:	40010800 	.word	0x40010800

080005d8 <LCD_Write_Char>:
void LCD_Write_Char(uint8_t ch)
{
 80005d8:	b580      	push	{r7, lr}
 80005da:	b082      	sub	sp, #8
 80005dc:	af00      	add	r7, sp, #0
 80005de:	4603      	mov	r3, r0
 80005e0:	71fb      	strb	r3, [r7, #7]

//	LCD_Check_LCD_IsBusy();
	/* Set as Data MODE ==> 1 */
	MCAL_GPIO_WritePort(LCD_CTRL,ch);
 80005e2:	79fb      	ldrb	r3, [r7, #7]
 80005e4:	b29b      	uxth	r3, r3
 80005e6:	4619      	mov	r1, r3
 80005e8:	480b      	ldr	r0, [pc, #44]	; (8000618 <LCD_Write_Char+0x40>)
 80005ea:	f000 f9f3 	bl	80009d4 <MCAL_GPIO_WritePort>

	//LCD_CTRL->CRL ^= (LCD_CTRL->CRL ^ ch) & 0x00FF;
	//MCAL_GPIO_WritePort(LCD_CTRL, ch);
	//LCD_CTRL->CRL ^= (LCD_CTRL->CRL ^ ch) & 0x00FF;
	/* Set Write MODE ==> 0 */
	MCAL_GPIO_WritePin(LCD_CTRL, RW_SWITCH, GPIO_PIN_RESET);
 80005ee:	2200      	movs	r2, #0
 80005f0:	f44f 7100 	mov.w	r1, #512	; 0x200
 80005f4:	4808      	ldr	r0, [pc, #32]	; (8000618 <LCD_Write_Char+0x40>)
 80005f6:	f000 f9d6 	bl	80009a6 <MCAL_GPIO_WritePin>
	/* Set as Data MODE ==> 1 */
	MCAL_GPIO_WritePin(LCD_CTRL, RS_SWITCH, GPIO_PIN_SET);
 80005fa:	2201      	movs	r2, #1
 80005fc:	f44f 7180 	mov.w	r1, #256	; 0x100
 8000600:	4805      	ldr	r0, [pc, #20]	; (8000618 <LCD_Write_Char+0x40>)
 8000602:	f000 f9d0 	bl	80009a6 <MCAL_GPIO_WritePin>

	delay_ms(1);
 8000606:	2001      	movs	r0, #1
 8000608:	f7ff fee2 	bl	80003d0 <delay_ms>
	LCD_Lcd_kick();
 800060c:	f000 f832 	bl	8000674 <LCD_Lcd_kick>
}
 8000610:	bf00      	nop
 8000612:	3708      	adds	r7, #8
 8000614:	46bd      	mov	sp, r7
 8000616:	bd80      	pop	{r7, pc}
 8000618:	40010800 	.word	0x40010800

0800061c <LCD_Write_Str>:
void LCD_Write_Str(uint8_t *st)
{
 800061c:	b580      	push	{r7, lr}
 800061e:	b084      	sub	sp, #16
 8000620:	af00      	add	r7, sp, #0
 8000622:	6078      	str	r0, [r7, #4]
	int count = 0;
 8000624:	2300      	movs	r3, #0
 8000626:	60fb      	str	r3, [r7, #12]

	while(*st > 0)
 8000628:	e01c      	b.n	8000664 <LCD_Write_Str+0x48>
	{
		count++;
 800062a:	68fb      	ldr	r3, [r7, #12]
 800062c:	3301      	adds	r3, #1
 800062e:	60fb      	str	r3, [r7, #12]
		LCD_Write_Char(*st++);
 8000630:	687b      	ldr	r3, [r7, #4]
 8000632:	1c5a      	adds	r2, r3, #1
 8000634:	607a      	str	r2, [r7, #4]
 8000636:	781b      	ldrb	r3, [r3, #0]
 8000638:	4618      	mov	r0, r3
 800063a:	f7ff ffcd 	bl	80005d8 <LCD_Write_Char>
		if(count == 16)
 800063e:	68fb      	ldr	r3, [r7, #12]
 8000640:	2b10      	cmp	r3, #16
 8000642:	d104      	bne.n	800064e <LCD_Write_Str+0x32>
		{
			LCD_GOTO_XY(2, 0);
 8000644:	2100      	movs	r1, #0
 8000646:	2002      	movs	r0, #2
 8000648:	f000 f831 	bl	80006ae <LCD_GOTO_XY>
 800064c:	e00a      	b.n	8000664 <LCD_Write_Str+0x48>
		}
		else if (count == 32)
 800064e:	68fb      	ldr	r3, [r7, #12]
 8000650:	2b20      	cmp	r3, #32
 8000652:	d107      	bne.n	8000664 <LCD_Write_Str+0x48>
		{
			LCD_Clear_Screen();
 8000654:	f000 f824 	bl	80006a0 <LCD_Clear_Screen>
			LCD_GOTO_XY(1, 0);
 8000658:	2100      	movs	r1, #0
 800065a:	2001      	movs	r0, #1
 800065c:	f000 f827 	bl	80006ae <LCD_GOTO_XY>
			count = 0;
 8000660:	2300      	movs	r3, #0
 8000662:	60fb      	str	r3, [r7, #12]
	while(*st > 0)
 8000664:	687b      	ldr	r3, [r7, #4]
 8000666:	781b      	ldrb	r3, [r3, #0]
 8000668:	2b00      	cmp	r3, #0
 800066a:	d1de      	bne.n	800062a <LCD_Write_Str+0xe>
		}
	}
}
 800066c:	bf00      	nop
 800066e:	3710      	adds	r7, #16
 8000670:	46bd      	mov	sp, r7
 8000672:	bd80      	pop	{r7, pc}

08000674 <LCD_Lcd_kick>:
	/* Set as Write MODE ==> 0 */
	MCAL_GPIO_WritePin(LCD_CTRL, RW_SWITCH, GPIO_PIN_RESET);

}
void LCD_Lcd_kick(void)
{
 8000674:	b580      	push	{r7, lr}
 8000676:	af00      	add	r7, sp, #0
	MCAL_GPIO_WritePin(LCD_CTRL, EN_SWITCH, GPIO_PIN_SET);
 8000678:	2201      	movs	r2, #1
 800067a:	f44f 6180 	mov.w	r1, #1024	; 0x400
 800067e:	4807      	ldr	r0, [pc, #28]	; (800069c <LCD_Lcd_kick+0x28>)
 8000680:	f000 f991 	bl	80009a6 <MCAL_GPIO_WritePin>
	delay_ms(50);
 8000684:	2032      	movs	r0, #50	; 0x32
 8000686:	f7ff fea3 	bl	80003d0 <delay_ms>
	MCAL_GPIO_WritePin(LCD_CTRL, EN_SWITCH, GPIO_PIN_RESET);
 800068a:	2200      	movs	r2, #0
 800068c:	f44f 6180 	mov.w	r1, #1024	; 0x400
 8000690:	4802      	ldr	r0, [pc, #8]	; (800069c <LCD_Lcd_kick+0x28>)
 8000692:	f000 f988 	bl	80009a6 <MCAL_GPIO_WritePin>

}
 8000696:	bf00      	nop
 8000698:	bd80      	pop	{r7, pc}
 800069a:	bf00      	nop
 800069c:	40010800 	.word	0x40010800

080006a0 <LCD_Clear_Screen>:
void LCD_Clear_Screen(void)
{
 80006a0:	b580      	push	{r7, lr}
 80006a2:	af00      	add	r7, sp, #0
	LCD_Write_Command(LCD_CLEAR_SCREEN);
 80006a4:	2001      	movs	r0, #1
 80006a6:	f7ff ff75 	bl	8000594 <LCD_Write_Command>
}
 80006aa:	bf00      	nop
 80006ac:	bd80      	pop	{r7, pc}

080006ae <LCD_GOTO_XY>:
void LCD_GOTO_XY(uint8_t line,uint8_t position)
{
 80006ae:	b580      	push	{r7, lr}
 80006b0:	b082      	sub	sp, #8
 80006b2:	af00      	add	r7, sp, #0
 80006b4:	4603      	mov	r3, r0
 80006b6:	460a      	mov	r2, r1
 80006b8:	71fb      	strb	r3, [r7, #7]
 80006ba:	4613      	mov	r3, r2
 80006bc:	71bb      	strb	r3, [r7, #6]
	if(line == 1)
 80006be:	79fb      	ldrb	r3, [r7, #7]
 80006c0:	2b01      	cmp	r3, #1
 80006c2:	d108      	bne.n	80006d6 <LCD_GOTO_XY+0x28>
	{
		if(position < 16 && position >= 0)
 80006c4:	79bb      	ldrb	r3, [r7, #6]
 80006c6:	2b0f      	cmp	r3, #15
 80006c8:	d805      	bhi.n	80006d6 <LCD_GOTO_XY+0x28>
		{
			LCD_Write_Command(LCD_BEGIN_AT_FIRST_ROW + position);
 80006ca:	79bb      	ldrb	r3, [r7, #6]
 80006cc:	3b80      	subs	r3, #128	; 0x80
 80006ce:	b2db      	uxtb	r3, r3
 80006d0:	4618      	mov	r0, r3
 80006d2:	f7ff ff5f 	bl	8000594 <LCD_Write_Command>
		}
	}
	if(line == 2)
 80006d6:	79fb      	ldrb	r3, [r7, #7]
 80006d8:	2b02      	cmp	r3, #2
 80006da:	d108      	bne.n	80006ee <LCD_GOTO_XY+0x40>
	{
		if(position < 16 && position >= 0)
 80006dc:	79bb      	ldrb	r3, [r7, #6]
 80006de:	2b0f      	cmp	r3, #15
 80006e0:	d805      	bhi.n	80006ee <LCD_GOTO_XY+0x40>
		{
			LCD_Write_Command(LCD_BEGIN_AT_SECOND_ROW + position);
 80006e2:	79bb      	ldrb	r3, [r7, #6]
 80006e4:	3b40      	subs	r3, #64	; 0x40
 80006e6:	b2db      	uxtb	r3, r3
 80006e8:	4618      	mov	r0, r3
 80006ea:	f7ff ff53 	bl	8000594 <LCD_Write_Command>
		}
	}
}
 80006ee:	bf00      	nop
 80006f0:	3708      	adds	r7, #8
 80006f2:	46bd      	mov	sp, r7
 80006f4:	bd80      	pop	{r7, pc}
	...

080006f8 <S7_Segment_Init>:
/*			 Functions Definitions 			  */
/* ========================================== */


void S7_Segment_Init()
{
 80006f8:	b580      	push	{r7, lr}
 80006fa:	b082      	sub	sp, #8
 80006fc:	af00      	add	r7, sp, #0
	GPIO_PinConfig_t PinCfg;

	/* ===========Set S7_Segment PORT PINS to OUTPUT=========== */

	PinCfg.GPIO_PinNumber = GPIO_PIN_9;
 80006fe:	f44f 7300 	mov.w	r3, #512	; 0x200
 8000702:	80bb      	strh	r3, [r7, #4]
	PinCfg.GPIO_MODE = GPIO_MODE_OUTPUT_PP;
 8000704:	2304      	movs	r3, #4
 8000706:	71bb      	strb	r3, [r7, #6]
	PinCfg.GPIO_OUTPUT_SPEED = GPIO_SPEED_10M;
 8000708:	2301      	movs	r3, #1
 800070a:	71fb      	strb	r3, [r7, #7]
	MCAL_GPIO_Init(GPIOB, &PinCfg);
 800070c:	1d3b      	adds	r3, r7, #4
 800070e:	4619      	mov	r1, r3
 8000710:	4827      	ldr	r0, [pc, #156]	; (80007b0 <S7_Segment_Init+0xb8>)
 8000712:	f000 f8b2 	bl	800087a <MCAL_GPIO_Init>


	PinCfg.GPIO_PinNumber = GPIO_PIN_10;
 8000716:	f44f 6380 	mov.w	r3, #1024	; 0x400
 800071a:	80bb      	strh	r3, [r7, #4]
	PinCfg.GPIO_MODE = GPIO_MODE_OUTPUT_PP;
 800071c:	2304      	movs	r3, #4
 800071e:	71bb      	strb	r3, [r7, #6]
	PinCfg.GPIO_OUTPUT_SPEED = GPIO_SPEED_10M;
 8000720:	2301      	movs	r3, #1
 8000722:	71fb      	strb	r3, [r7, #7]
	MCAL_GPIO_Init(GPIOB, &PinCfg);
 8000724:	1d3b      	adds	r3, r7, #4
 8000726:	4619      	mov	r1, r3
 8000728:	4821      	ldr	r0, [pc, #132]	; (80007b0 <S7_Segment_Init+0xb8>)
 800072a:	f000 f8a6 	bl	800087a <MCAL_GPIO_Init>

	PinCfg.GPIO_PinNumber = GPIO_PIN_11;
 800072e:	f44f 6300 	mov.w	r3, #2048	; 0x800
 8000732:	80bb      	strh	r3, [r7, #4]
	PinCfg.GPIO_MODE = GPIO_MODE_OUTPUT_PP;
 8000734:	2304      	movs	r3, #4
 8000736:	71bb      	strb	r3, [r7, #6]
	PinCfg.GPIO_OUTPUT_SPEED = GPIO_SPEED_10M;
 8000738:	2301      	movs	r3, #1
 800073a:	71fb      	strb	r3, [r7, #7]
	MCAL_GPIO_Init(GPIOB, &PinCfg);
 800073c:	1d3b      	adds	r3, r7, #4
 800073e:	4619      	mov	r1, r3
 8000740:	481b      	ldr	r0, [pc, #108]	; (80007b0 <S7_Segment_Init+0xb8>)
 8000742:	f000 f89a 	bl	800087a <MCAL_GPIO_Init>

	PinCfg.GPIO_PinNumber = GPIO_PIN_12;
 8000746:	f44f 5380 	mov.w	r3, #4096	; 0x1000
 800074a:	80bb      	strh	r3, [r7, #4]
	PinCfg.GPIO_MODE = GPIO_MODE_OUTPUT_PP;
 800074c:	2304      	movs	r3, #4
 800074e:	71bb      	strb	r3, [r7, #6]
	PinCfg.GPIO_OUTPUT_SPEED = GPIO_SPEED_10M;
 8000750:	2301      	movs	r3, #1
 8000752:	71fb      	strb	r3, [r7, #7]
	MCAL_GPIO_Init(GPIOB, &PinCfg);
 8000754:	1d3b      	adds	r3, r7, #4
 8000756:	4619      	mov	r1, r3
 8000758:	4815      	ldr	r0, [pc, #84]	; (80007b0 <S7_Segment_Init+0xb8>)
 800075a:	f000 f88e 	bl	800087a <MCAL_GPIO_Init>

	PinCfg.GPIO_PinNumber = GPIO_PIN_13;
 800075e:	f44f 5300 	mov.w	r3, #8192	; 0x2000
 8000762:	80bb      	strh	r3, [r7, #4]
	PinCfg.GPIO_MODE = GPIO_MODE_OUTPUT_PP;
 8000764:	2304      	movs	r3, #4
 8000766:	71bb      	strb	r3, [r7, #6]
	PinCfg.GPIO_OUTPUT_SPEED = GPIO_SPEED_10M;
 8000768:	2301      	movs	r3, #1
 800076a:	71fb      	strb	r3, [r7, #7]
	MCAL_GPIO_Init(GPIOB, &PinCfg);
 800076c:	1d3b      	adds	r3, r7, #4
 800076e:	4619      	mov	r1, r3
 8000770:	480f      	ldr	r0, [pc, #60]	; (80007b0 <S7_Segment_Init+0xb8>)
 8000772:	f000 f882 	bl	800087a <MCAL_GPIO_Init>

	PinCfg.GPIO_PinNumber = GPIO_PIN_14;
 8000776:	f44f 4380 	mov.w	r3, #16384	; 0x4000
 800077a:	80bb      	strh	r3, [r7, #4]
	PinCfg.GPIO_MODE = GPIO_MODE_OUTPUT_PP;
 800077c:	2304      	movs	r3, #4
 800077e:	71bb      	strb	r3, [r7, #6]
	PinCfg.GPIO_OUTPUT_SPEED = GPIO_SPEED_10M;
 8000780:	2301      	movs	r3, #1
 8000782:	71fb      	strb	r3, [r7, #7]
	MCAL_GPIO_Init(GPIOB, &PinCfg);
 8000784:	1d3b      	adds	r3, r7, #4
 8000786:	4619      	mov	r1, r3
 8000788:	4809      	ldr	r0, [pc, #36]	; (80007b0 <S7_Segment_Init+0xb8>)
 800078a:	f000 f876 	bl	800087a <MCAL_GPIO_Init>

	PinCfg.GPIO_PinNumber = GPIO_PIN_15;
 800078e:	f44f 4300 	mov.w	r3, #32768	; 0x8000
 8000792:	80bb      	strh	r3, [r7, #4]
	PinCfg.GPIO_MODE = GPIO_MODE_OUTPUT_PP;
 8000794:	2304      	movs	r3, #4
 8000796:	71bb      	strb	r3, [r7, #6]
	PinCfg.GPIO_OUTPUT_SPEED = GPIO_SPEED_10M;
 8000798:	2301      	movs	r3, #1
 800079a:	71fb      	strb	r3, [r7, #7]
	MCAL_GPIO_Init(GPIOB, &PinCfg);
 800079c:	1d3b      	adds	r3, r7, #4
 800079e:	4619      	mov	r1, r3
 80007a0:	4803      	ldr	r0, [pc, #12]	; (80007b0 <S7_Segment_Init+0xb8>)
 80007a2:	f000 f86a 	bl	800087a <MCAL_GPIO_Init>

}
 80007a6:	bf00      	nop
 80007a8:	3708      	adds	r7, #8
 80007aa:	46bd      	mov	sp, r7
 80007ac:	bd80      	pop	{r7, pc}
 80007ae:	bf00      	nop
 80007b0:	40010c00 	.word	0x40010c00

080007b4 <Get_CRLH_Position>:
 */

#include "STM32F103C6_GPIO_Drivers.h"

uint8_t Get_CRLH_Position(uint16_t PinNumber)
{
 80007b4:	b480      	push	{r7}
 80007b6:	b083      	sub	sp, #12
 80007b8:	af00      	add	r7, sp, #0
 80007ba:	4603      	mov	r3, r0
 80007bc:	80fb      	strh	r3, [r7, #6]
	switch(PinNumber)
 80007be:	88fb      	ldrh	r3, [r7, #6]
 80007c0:	2b80      	cmp	r3, #128	; 0x80
 80007c2:	d042      	beq.n	800084a <Get_CRLH_Position+0x96>
 80007c4:	2b80      	cmp	r3, #128	; 0x80
 80007c6:	dc11      	bgt.n	80007ec <Get_CRLH_Position+0x38>
 80007c8:	2b08      	cmp	r3, #8
 80007ca:	d036      	beq.n	800083a <Get_CRLH_Position+0x86>
 80007cc:	2b08      	cmp	r3, #8
 80007ce:	dc06      	bgt.n	80007de <Get_CRLH_Position+0x2a>
 80007d0:	2b02      	cmp	r3, #2
 80007d2:	d02e      	beq.n	8000832 <Get_CRLH_Position+0x7e>
 80007d4:	2b04      	cmp	r3, #4
 80007d6:	d02e      	beq.n	8000836 <Get_CRLH_Position+0x82>
 80007d8:	2b01      	cmp	r3, #1
 80007da:	d028      	beq.n	800082e <Get_CRLH_Position+0x7a>
 80007dc:	e047      	b.n	800086e <Get_CRLH_Position+0xba>
 80007de:	2b20      	cmp	r3, #32
 80007e0:	d02f      	beq.n	8000842 <Get_CRLH_Position+0x8e>
 80007e2:	2b40      	cmp	r3, #64	; 0x40
 80007e4:	d02f      	beq.n	8000846 <Get_CRLH_Position+0x92>
 80007e6:	2b10      	cmp	r3, #16
 80007e8:	d029      	beq.n	800083e <Get_CRLH_Position+0x8a>
 80007ea:	e040      	b.n	800086e <Get_CRLH_Position+0xba>
 80007ec:	f5b3 6f00 	cmp.w	r3, #2048	; 0x800
 80007f0:	d033      	beq.n	800085a <Get_CRLH_Position+0xa6>
 80007f2:	f5b3 6f00 	cmp.w	r3, #2048	; 0x800
 80007f6:	dc09      	bgt.n	800080c <Get_CRLH_Position+0x58>
 80007f8:	f5b3 7f00 	cmp.w	r3, #512	; 0x200
 80007fc:	d029      	beq.n	8000852 <Get_CRLH_Position+0x9e>
 80007fe:	f5b3 6f80 	cmp.w	r3, #1024	; 0x400
 8000802:	d028      	beq.n	8000856 <Get_CRLH_Position+0xa2>
 8000804:	f5b3 7f80 	cmp.w	r3, #256	; 0x100
 8000808:	d021      	beq.n	800084e <Get_CRLH_Position+0x9a>
 800080a:	e030      	b.n	800086e <Get_CRLH_Position+0xba>
 800080c:	f5b3 5f00 	cmp.w	r3, #8192	; 0x2000
 8000810:	d027      	beq.n	8000862 <Get_CRLH_Position+0xae>
 8000812:	f5b3 5f00 	cmp.w	r3, #8192	; 0x2000
 8000816:	dc03      	bgt.n	8000820 <Get_CRLH_Position+0x6c>
 8000818:	f5b3 5f80 	cmp.w	r3, #4096	; 0x1000
 800081c:	d01f      	beq.n	800085e <Get_CRLH_Position+0xaa>
 800081e:	e026      	b.n	800086e <Get_CRLH_Position+0xba>
 8000820:	f5b3 4f80 	cmp.w	r3, #16384	; 0x4000
 8000824:	d01f      	beq.n	8000866 <Get_CRLH_Position+0xb2>
 8000826:	f5b3 4f00 	cmp.w	r3, #32768	; 0x8000
 800082a:	d01e      	beq.n	800086a <Get_CRLH_Position+0xb6>
 800082c:	e01f      	b.n	800086e <Get_CRLH_Position+0xba>
	{
	//CRL Pins
	case GPIO_PIN_0:
		return 0;
 800082e:	2300      	movs	r3, #0
 8000830:	e01e      	b.n	8000870 <Get_CRLH_Position+0xbc>
		break;
	case GPIO_PIN_1:
		return 4;
 8000832:	2304      	movs	r3, #4
 8000834:	e01c      	b.n	8000870 <Get_CRLH_Position+0xbc>
		break;
	case GPIO_PIN_2:
		return 8;
 8000836:	2308      	movs	r3, #8
 8000838:	e01a      	b.n	8000870 <Get_CRLH_Position+0xbc>
		break;
	case GPIO_PIN_3:
		return 12;
 800083a:	230c      	movs	r3, #12
 800083c:	e018      	b.n	8000870 <Get_CRLH_Position+0xbc>
		break;
	case GPIO_PIN_4:
		return 16;
 800083e:	2310      	movs	r3, #16
 8000840:	e016      	b.n	8000870 <Get_CRLH_Position+0xbc>
		break;
	case GPIO_PIN_5:
		return 20;
 8000842:	2314      	movs	r3, #20
 8000844:	e014      	b.n	8000870 <Get_CRLH_Position+0xbc>
		break;
	case GPIO_PIN_6:
		return 24;
 8000846:	2318      	movs	r3, #24
 8000848:	e012      	b.n	8000870 <Get_CRLH_Position+0xbc>
		break;
	case GPIO_PIN_7:
		return 28;
 800084a:	231c      	movs	r3, #28
 800084c:	e010      	b.n	8000870 <Get_CRLH_Position+0xbc>
		break;
		//CRH Pins
	case GPIO_PIN_8:
		return 0;
 800084e:	2300      	movs	r3, #0
 8000850:	e00e      	b.n	8000870 <Get_CRLH_Position+0xbc>
		break;
	case GPIO_PIN_9:
		return 4;
 8000852:	2304      	movs	r3, #4
 8000854:	e00c      	b.n	8000870 <Get_CRLH_Position+0xbc>
		break;
	case GPIO_PIN_10:
		return 8;
 8000856:	2308      	movs	r3, #8
 8000858:	e00a      	b.n	8000870 <Get_CRLH_Position+0xbc>
		break;
	case GPIO_PIN_11:
		return 12;
 800085a:	230c      	movs	r3, #12
 800085c:	e008      	b.n	8000870 <Get_CRLH_Position+0xbc>
		break;
	case GPIO_PIN_12:
		return 16;
 800085e:	2310      	movs	r3, #16
 8000860:	e006      	b.n	8000870 <Get_CRLH_Position+0xbc>
		break;
	case GPIO_PIN_13:
		return 20;
 8000862:	2314      	movs	r3, #20
 8000864:	e004      	b.n	8000870 <Get_CRLH_Position+0xbc>
		break;
	case GPIO_PIN_14:
		return 24;
 8000866:	2318      	movs	r3, #24
 8000868:	e002      	b.n	8000870 <Get_CRLH_Position+0xbc>
		break;
	case GPIO_PIN_15:
		return 28;
 800086a:	231c      	movs	r3, #28
 800086c:	e000      	b.n	8000870 <Get_CRLH_Position+0xbc>
		break;
	}

	return 0;
 800086e:	2300      	movs	r3, #0
}
 8000870:	4618      	mov	r0, r3
 8000872:	370c      	adds	r7, #12
 8000874:	46bd      	mov	sp, r7
 8000876:	bc80      	pop	{r7}
 8000878:	4770      	bx	lr

0800087a <MCAL_GPIO_Init>:
 * @retval		    -none
 * Note             -Stm32F103C6 MCU has GPIO A,B,C,D,E Modules
 * 					 But LQFP48 Package has only GPIO A,B, Part of C/D exported as external PINS from the MCU
 */
void MCAL_GPIO_Init(GPIO_TypeDef *GPIOx,GPIO_PinConfig_t *PinConfig)
{
 800087a:	b590      	push	{r4, r7, lr}
 800087c:	b085      	sub	sp, #20
 800087e:	af00      	add	r7, sp, #0
 8000880:	6078      	str	r0, [r7, #4]
 8000882:	6039      	str	r1, [r7, #0]
	//Port configuration register low (GPIOx_CRL) Configure PINS from 0 >>> 7
	//Port configuration register high (GPIOx_CRH) Configure PINS from 8 >>> 15
	volatile uint32_t* pconfigregister = NULL;
 8000884:	2300      	movs	r3, #0
 8000886:	60bb      	str	r3, [r7, #8]
	uint8_t PIN_Config = 0;
 8000888:	2300      	movs	r3, #0
 800088a:	73fb      	strb	r3, [r7, #15]

	pconfigregister = (PinConfig->GPIO_PinNumber < GPIO_PIN_8) ? &GPIOx->CRL : &GPIOx->CRH;
 800088c:	683b      	ldr	r3, [r7, #0]
 800088e:	881b      	ldrh	r3, [r3, #0]
 8000890:	2bff      	cmp	r3, #255	; 0xff
 8000892:	d801      	bhi.n	8000898 <MCAL_GPIO_Init+0x1e>
 8000894:	687b      	ldr	r3, [r7, #4]
 8000896:	e001      	b.n	800089c <MCAL_GPIO_Init+0x22>
 8000898:	687b      	ldr	r3, [r7, #4]
 800089a:	3304      	adds	r3, #4
 800089c:	60bb      	str	r3, [r7, #8]

	//Clear CNFx[1:0] MODEx[1:0]
	(*pconfigregister) &= ~(0xF << Get_CRLH_Position(PinConfig->GPIO_PinNumber));
 800089e:	683b      	ldr	r3, [r7, #0]
 80008a0:	881b      	ldrh	r3, [r3, #0]
 80008a2:	4618      	mov	r0, r3
 80008a4:	f7ff ff86 	bl	80007b4 <Get_CRLH_Position>
 80008a8:	4603      	mov	r3, r0
 80008aa:	461a      	mov	r2, r3
 80008ac:	230f      	movs	r3, #15
 80008ae:	4093      	lsls	r3, r2
 80008b0:	43da      	mvns	r2, r3
 80008b2:	68bb      	ldr	r3, [r7, #8]
 80008b4:	681b      	ldr	r3, [r3, #0]
 80008b6:	401a      	ands	r2, r3
 80008b8:	68bb      	ldr	r3, [r7, #8]
 80008ba:	601a      	str	r2, [r3, #0]

	//if Pin is output
	if( (PinConfig->GPIO_MODE == GPIO_MODE_OUTPUT_OD) || (PinConfig->GPIO_MODE == GPIO_MODE_OUTPUT_PP) || (PinConfig->GPIO_MODE == GPIO_MODE_OUTPUT_AF_PP) || (PinConfig->GPIO_MODE == GPIO_MODE_OUTPUT_AF_OD) )
 80008bc:	683b      	ldr	r3, [r7, #0]
 80008be:	789b      	ldrb	r3, [r3, #2]
 80008c0:	2b05      	cmp	r3, #5
 80008c2:	d00b      	beq.n	80008dc <MCAL_GPIO_Init+0x62>
 80008c4:	683b      	ldr	r3, [r7, #0]
 80008c6:	789b      	ldrb	r3, [r3, #2]
 80008c8:	2b04      	cmp	r3, #4
 80008ca:	d007      	beq.n	80008dc <MCAL_GPIO_Init+0x62>
 80008cc:	683b      	ldr	r3, [r7, #0]
 80008ce:	789b      	ldrb	r3, [r3, #2]
 80008d0:	2b06      	cmp	r3, #6
 80008d2:	d003      	beq.n	80008dc <MCAL_GPIO_Init+0x62>
 80008d4:	683b      	ldr	r3, [r7, #0]
 80008d6:	789b      	ldrb	r3, [r3, #2]
 80008d8:	2b07      	cmp	r3, #7
 80008da:	d10e      	bne.n	80008fa <MCAL_GPIO_Init+0x80>
	{
		//Set CNFx[1:0] MODEx[1:0]
		PIN_Config = ( (((PinConfig->GPIO_MODE - 4) << 2) | (PinConfig->GPIO_OUTPUT_SPEED)) & 0x0F);
 80008dc:	683b      	ldr	r3, [r7, #0]
 80008de:	789b      	ldrb	r3, [r3, #2]
 80008e0:	3b04      	subs	r3, #4
 80008e2:	009b      	lsls	r3, r3, #2
 80008e4:	b25a      	sxtb	r2, r3
 80008e6:	683b      	ldr	r3, [r7, #0]
 80008e8:	78db      	ldrb	r3, [r3, #3]
 80008ea:	b25b      	sxtb	r3, r3
 80008ec:	4313      	orrs	r3, r2
 80008ee:	b25b      	sxtb	r3, r3
 80008f0:	b2db      	uxtb	r3, r3
 80008f2:	f003 030f 	and.w	r3, r3, #15
 80008f6:	73fb      	strb	r3, [r7, #15]
 80008f8:	e02c      	b.n	8000954 <MCAL_GPIO_Init+0xda>
		                        //CNF                              //MODE                     //Need for bits only(0xF)
	}
	//if Pin is input
	else //Mode = 00: Input mode (reset state)
	{
		if( (PinConfig->GPIO_MODE == GPIO_MODE_INPUT_FLO) || (PinConfig->GPIO_MODE == GPIO_MODE_ANALOG))
 80008fa:	683b      	ldr	r3, [r7, #0]
 80008fc:	789b      	ldrb	r3, [r3, #2]
 80008fe:	2b01      	cmp	r3, #1
 8000900:	d003      	beq.n	800090a <MCAL_GPIO_Init+0x90>
 8000902:	683b      	ldr	r3, [r7, #0]
 8000904:	789b      	ldrb	r3, [r3, #2]
 8000906:	2b00      	cmp	r3, #0
 8000908:	d107      	bne.n	800091a <MCAL_GPIO_Init+0xa0>
		{
			//Set CNFx[1:0] MODEx[1:0]00
			PIN_Config = ( (((PinConfig->GPIO_MODE) << 2) | 0x0) & 0x0F);
 800090a:	683b      	ldr	r3, [r7, #0]
 800090c:	789b      	ldrb	r3, [r3, #2]
 800090e:	009b      	lsls	r3, r3, #2
 8000910:	b2db      	uxtb	r3, r3
 8000912:	f003 030f 	and.w	r3, r3, #15
 8000916:	73fb      	strb	r3, [r7, #15]
 8000918:	e01c      	b.n	8000954 <MCAL_GPIO_Init+0xda>
		}
		else if (PinConfig->GPIO_MODE == GPIO_MODE_AF_INPUT) //Consider it as input floating
 800091a:	683b      	ldr	r3, [r7, #0]
 800091c:	789b      	ldrb	r3, [r3, #2]
 800091e:	2b08      	cmp	r3, #8
 8000920:	d102      	bne.n	8000928 <MCAL_GPIO_Init+0xae>
		{
			//Set CNFx[1:0] MODEx[1:0]00
			PIN_Config = ( (((GPIO_MODE_INPUT_FLO) << 2) | 0x0) & 0x0F);
 8000922:	2304      	movs	r3, #4
 8000924:	73fb      	strb	r3, [r7, #15]
 8000926:	e015      	b.n	8000954 <MCAL_GPIO_Init+0xda>
		}
		//PU PD Input
		else
		{
			PIN_Config = ( (((GPIO_MODE_INPUT_PU) << 2) | 0x0) & 0x0F);
 8000928:	2308      	movs	r3, #8
 800092a:	73fb      	strb	r3, [r7, #15]

			if(PinConfig->GPIO_MODE == GPIO_MODE_INPUT_PU)
 800092c:	683b      	ldr	r3, [r7, #0]
 800092e:	789b      	ldrb	r3, [r3, #2]
 8000930:	2b02      	cmp	r3, #2
 8000932:	d107      	bne.n	8000944 <MCAL_GPIO_Init+0xca>
			{
				//Input pull up: Table 20. Port bit configuration table (PxODR = 1 )
				GPIOx->ODR |= PinConfig->GPIO_PinNumber;
 8000934:	687b      	ldr	r3, [r7, #4]
 8000936:	68db      	ldr	r3, [r3, #12]
 8000938:	683a      	ldr	r2, [r7, #0]
 800093a:	8812      	ldrh	r2, [r2, #0]
 800093c:	431a      	orrs	r2, r3
 800093e:	687b      	ldr	r3, [r7, #4]
 8000940:	60da      	str	r2, [r3, #12]
 8000942:	e007      	b.n	8000954 <MCAL_GPIO_Init+0xda>
			}
			else
			{
				//Input pull down: Table 20. Port bit configuration table (PxODR = 0)
				GPIOx->ODR &= ~(PinConfig->GPIO_PinNumber);
 8000944:	687b      	ldr	r3, [r7, #4]
 8000946:	68db      	ldr	r3, [r3, #12]
 8000948:	683a      	ldr	r2, [r7, #0]
 800094a:	8812      	ldrh	r2, [r2, #0]
 800094c:	43d2      	mvns	r2, r2
 800094e:	401a      	ands	r2, r3
 8000950:	687b      	ldr	r3, [r7, #4]
 8000952:	60da      	str	r2, [r3, #12]
		}


	}
	//Write on the CRL or CRH
	(*pconfigregister) |= ( (PIN_Config) << Get_CRLH_Position(PinConfig->GPIO_PinNumber));
 8000954:	7bfc      	ldrb	r4, [r7, #15]
 8000956:	683b      	ldr	r3, [r7, #0]
 8000958:	881b      	ldrh	r3, [r3, #0]
 800095a:	4618      	mov	r0, r3
 800095c:	f7ff ff2a 	bl	80007b4 <Get_CRLH_Position>
 8000960:	4603      	mov	r3, r0
 8000962:	fa04 f203 	lsl.w	r2, r4, r3
 8000966:	68bb      	ldr	r3, [r7, #8]
 8000968:	681b      	ldr	r3, [r3, #0]
 800096a:	431a      	orrs	r2, r3
 800096c:	68bb      	ldr	r3, [r7, #8]
 800096e:	601a      	str	r2, [r3, #0]
}
 8000970:	bf00      	nop
 8000972:	3714      	adds	r7, #20
 8000974:	46bd      	mov	sp, r7
 8000976:	bd90      	pop	{r4, r7, pc}

08000978 <MCAL_GPIO_ReadPin>:
 * @param [in]      -PinNumber: Set the Pin Number to read according @ref GPIO_PINS_define
 * @retval		    -The input pin value(two values based on @ref GPIO_PINS_state)
 * Note             -none
 */
uint8_t MCAL_GPIO_ReadPin(GPIO_TypeDef *GPIOx,uint16_t PinNumber)
{
 8000978:	b480      	push	{r7}
 800097a:	b085      	sub	sp, #20
 800097c:	af00      	add	r7, sp, #0
 800097e:	6078      	str	r0, [r7, #4]
 8000980:	460b      	mov	r3, r1
 8000982:	807b      	strh	r3, [r7, #2]
	uint8_t bitstatus;
	if( (GPIOx->IDR & PinNumber) != (uint32_t)GPIO_PIN_RESET )
 8000984:	687b      	ldr	r3, [r7, #4]
 8000986:	689a      	ldr	r2, [r3, #8]
 8000988:	887b      	ldrh	r3, [r7, #2]
 800098a:	4013      	ands	r3, r2
 800098c:	2b00      	cmp	r3, #0
 800098e:	d002      	beq.n	8000996 <MCAL_GPIO_ReadPin+0x1e>
	{
		bitstatus = GPIO_PIN_SET;
 8000990:	2301      	movs	r3, #1
 8000992:	73fb      	strb	r3, [r7, #15]
 8000994:	e001      	b.n	800099a <MCAL_GPIO_ReadPin+0x22>
	}
	else
	{
		bitstatus = GPIO_PIN_RESET;
 8000996:	2300      	movs	r3, #0
 8000998:	73fb      	strb	r3, [r7, #15]
	}
	return bitstatus;
 800099a:	7bfb      	ldrb	r3, [r7, #15]
}
 800099c:	4618      	mov	r0, r3
 800099e:	3714      	adds	r7, #20
 80009a0:	46bd      	mov	sp, r7
 80009a2:	bc80      	pop	{r7}
 80009a4:	4770      	bx	lr

080009a6 <MCAL_GPIO_WritePin>:
 * @param [in]		-Value: Pin Value
 * @retval		    -none
 * Note             -none
 */
void MCAL_GPIO_WritePin(GPIO_TypeDef *GPIOx,uint16_t PinNumber,uint8_t value)
{
 80009a6:	b480      	push	{r7}
 80009a8:	b083      	sub	sp, #12
 80009aa:	af00      	add	r7, sp, #0
 80009ac:	6078      	str	r0, [r7, #4]
 80009ae:	460b      	mov	r3, r1
 80009b0:	807b      	strh	r3, [r7, #2]
 80009b2:	4613      	mov	r3, r2
 80009b4:	707b      	strb	r3, [r7, #1]
	if( value != GPIO_PIN_RESET )
 80009b6:	787b      	ldrb	r3, [r7, #1]
 80009b8:	2b00      	cmp	r3, #0
 80009ba:	d003      	beq.n	80009c4 <MCAL_GPIO_WritePin+0x1e>
		//			or
		//		Bits 15:0 BSy: Port x Set bit y (y= 0 .. 15)
		//		These bits are write-only and can be accessed in Word mode only.
		//		0: No action on the corresponding ODRx bit
		//		1: Set the corresponding ODRx bit
		GPIOx->BSRR = (uint32_t)PinNumber;
 80009bc:	887a      	ldrh	r2, [r7, #2]
 80009be:	687b      	ldr	r3, [r7, #4]
 80009c0:	611a      	str	r2, [r3, #16]
		//			These bits are write-only and can be accessed in Word mode only.
		//			0: No action on the corresponding ODRx bit
		//			1: Reset the corresponding ODRx bit
		GPIOx->BRR = (uint32_t)PinNumber;
	}
}
 80009c2:	e002      	b.n	80009ca <MCAL_GPIO_WritePin+0x24>
		GPIOx->BRR = (uint32_t)PinNumber;
 80009c4:	887a      	ldrh	r2, [r7, #2]
 80009c6:	687b      	ldr	r3, [r7, #4]
 80009c8:	615a      	str	r2, [r3, #20]
}
 80009ca:	bf00      	nop
 80009cc:	370c      	adds	r7, #12
 80009ce:	46bd      	mov	sp, r7
 80009d0:	bc80      	pop	{r7}
 80009d2:	4770      	bx	lr

080009d4 <MCAL_GPIO_WritePort>:
 * @param [in]		-Value: Port  Value
 * @retval		    -none
 * Note             -none
 */
void MCAL_GPIO_WritePort(GPIO_TypeDef *GPIOx,uint16_t value)
{
 80009d4:	b480      	push	{r7}
 80009d6:	b083      	sub	sp, #12
 80009d8:	af00      	add	r7, sp, #0
 80009da:	6078      	str	r0, [r7, #4]
 80009dc:	460b      	mov	r3, r1
 80009de:	807b      	strh	r3, [r7, #2]
	GPIOx->ODR = (uint32_t)value;
 80009e0:	887a      	ldrh	r2, [r7, #2]
 80009e2:	687b      	ldr	r3, [r7, #4]
 80009e4:	60da      	str	r2, [r3, #12]
}
 80009e6:	bf00      	nop
 80009e8:	370c      	adds	r7, #12
 80009ea:	46bd      	mov	sp, r7
 80009ec:	bc80      	pop	{r7}
 80009ee:	4770      	bx	lr

080009f0 <clock_init>:
#include "S7_Segment.h"



void clock_init()
{
 80009f0:	b480      	push	{r7}
 80009f2:	af00      	add	r7, sp, #0
	//IO port A clock enable
	RCC_GPIOA_CLK_EN();
 80009f4:	4b07      	ldr	r3, [pc, #28]	; (8000a14 <clock_init+0x24>)
 80009f6:	699b      	ldr	r3, [r3, #24]
 80009f8:	4a06      	ldr	r2, [pc, #24]	; (8000a14 <clock_init+0x24>)
 80009fa:	f043 0304 	orr.w	r3, r3, #4
 80009fe:	6193      	str	r3, [r2, #24]
	//IO port B clock enable
	RCC_GPIOB_CLK_EN();
 8000a00:	4b04      	ldr	r3, [pc, #16]	; (8000a14 <clock_init+0x24>)
 8000a02:	699b      	ldr	r3, [r3, #24]
 8000a04:	4a03      	ldr	r2, [pc, #12]	; (8000a14 <clock_init+0x24>)
 8000a06:	f043 0308 	orr.w	r3, r3, #8
 8000a0a:	6193      	str	r3, [r2, #24]
}
 8000a0c:	bf00      	nop
 8000a0e:	46bd      	mov	sp, r7
 8000a10:	bc80      	pop	{r7}
 8000a12:	4770      	bx	lr
 8000a14:	40021000 	.word	0x40021000

08000a18 <wait_ms>:




void wait_ms(int time)
{
 8000a18:	b480      	push	{r7}
 8000a1a:	b085      	sub	sp, #20
 8000a1c:	af00      	add	r7, sp, #0
 8000a1e:	6078      	str	r0, [r7, #4]
	uint32_t i,j;
	for(i = 0; i < time; i++)
 8000a20:	2300      	movs	r3, #0
 8000a22:	60fb      	str	r3, [r7, #12]
 8000a24:	e00b      	b.n	8000a3e <wait_ms+0x26>
		for(j = 0; j < 255; j++);
 8000a26:	2300      	movs	r3, #0
 8000a28:	60bb      	str	r3, [r7, #8]
 8000a2a:	e002      	b.n	8000a32 <wait_ms+0x1a>
 8000a2c:	68bb      	ldr	r3, [r7, #8]
 8000a2e:	3301      	adds	r3, #1
 8000a30:	60bb      	str	r3, [r7, #8]
 8000a32:	68bb      	ldr	r3, [r7, #8]
 8000a34:	2bfe      	cmp	r3, #254	; 0xfe
 8000a36:	d9f9      	bls.n	8000a2c <wait_ms+0x14>
	for(i = 0; i < time; i++)
 8000a38:	68fb      	ldr	r3, [r7, #12]
 8000a3a:	3301      	adds	r3, #1
 8000a3c:	60fb      	str	r3, [r7, #12]
 8000a3e:	687b      	ldr	r3, [r7, #4]
 8000a40:	68fa      	ldr	r2, [r7, #12]
 8000a42:	429a      	cmp	r2, r3
 8000a44:	d3ef      	bcc.n	8000a26 <wait_ms+0xe>
}
 8000a46:	bf00      	nop
 8000a48:	3714      	adds	r7, #20
 8000a4a:	46bd      	mov	sp, r7
 8000a4c:	bc80      	pop	{r7}
 8000a4e:	4770      	bx	lr

08000a50 <main>:

int main(void)
{
 8000a50:	b580      	push	{r7, lr}
 8000a52:	b088      	sub	sp, #32
 8000a54:	af00      	add	r7, sp, #0
		/*Initialization */
		clock_init();
 8000a56:	f7ff ffcb 	bl	80009f0 <clock_init>
		LCD_Init();
 8000a5a:	f7ff fd81 	bl	8000560 <LCD_Init>
		S7_Segment_Init();
 8000a5e:	f7ff fe4b 	bl	80006f8 <S7_Segment_Init>

	    LCD_Write_Str("Learn_in_depth");
 8000a62:	482d      	ldr	r0, [pc, #180]	; (8000b18 <main+0xc8>)
 8000a64:	f7ff fdda 	bl	800061c <LCD_Write_Str>
		wait_ms(30);
 8000a68:	201e      	movs	r0, #30
 8000a6a:	f7ff ffd5 	bl	8000a18 <wait_ms>
		LCD_Clear_Screen();
 8000a6e:	f7ff fe17 	bl	80006a0 <LCD_Clear_Screen>

		/* Array to store 7 segments shapes */
	    unsigned char seg[] = {ZERO, ONE, TWO, THREE, FOUR, FIVE, SIX, SEVEN, EIGHT, NINE, ZERO};
 8000a72:	4a2a      	ldr	r2, [pc, #168]	; (8000b1c <main+0xcc>)
 8000a74:	f107 0310 	add.w	r3, r7, #16
 8000a78:	ca07      	ldmia	r2, {r0, r1, r2}
 8000a7a:	c303      	stmia	r3!, {r0, r1}
 8000a7c:	801a      	strh	r2, [r3, #0]
 8000a7e:	3302      	adds	r3, #2
 8000a80:	0c12      	lsrs	r2, r2, #16
 8000a82:	701a      	strb	r2, [r3, #0]
	    /* Array to store Numbers */
	    unsigned char lcd[] = {'0', '1', '2', '3', '4','5', '6', '7', '8', '9' , '0'};
 8000a84:	4a26      	ldr	r2, [pc, #152]	; (8000b20 <main+0xd0>)
 8000a86:	1d3b      	adds	r3, r7, #4
 8000a88:	ca07      	ldmia	r2, {r0, r1, r2}
 8000a8a:	c303      	stmia	r3!, {r0, r1}
 8000a8c:	801a      	strh	r2, [r3, #0]
 8000a8e:	3302      	adds	r3, #2
 8000a90:	0c12      	lsrs	r2, r2, #16
 8000a92:	701a      	strb	r2, [r3, #0]


	    for (unsigned char i = 0; i < 11 ; i++)
 8000a94:	2300      	movs	r3, #0
 8000a96:	77fb      	strb	r3, [r7, #31]
 8000a98:	e01b      	b.n	8000ad2 <main+0x82>
	    {
	    	/*  We shifted by 9 as we used the First 9 Ports for Keypad and connected 7-segment from PB10 */
	    	MCAL_GPIO_WritePort(GPIOB,seg[i] << 9);
 8000a9a:	7ffb      	ldrb	r3, [r7, #31]
 8000a9c:	f107 0220 	add.w	r2, r7, #32
 8000aa0:	4413      	add	r3, r2
 8000aa2:	f813 3c10 	ldrb.w	r3, [r3, #-16]
 8000aa6:	b29b      	uxth	r3, r3
 8000aa8:	025b      	lsls	r3, r3, #9
 8000aaa:	b29b      	uxth	r3, r3
 8000aac:	4619      	mov	r1, r3
 8000aae:	481d      	ldr	r0, [pc, #116]	; (8000b24 <main+0xd4>)
 8000ab0:	f7ff ff90 	bl	80009d4 <MCAL_GPIO_WritePort>
	    	LCD_Write_Char(lcd[i]);
 8000ab4:	7ffb      	ldrb	r3, [r7, #31]
 8000ab6:	f107 0220 	add.w	r2, r7, #32
 8000aba:	4413      	add	r3, r2
 8000abc:	f813 3c1c 	ldrb.w	r3, [r3, #-28]
 8000ac0:	4618      	mov	r0, r3
 8000ac2:	f7ff fd89 	bl	80005d8 <LCD_Write_Char>
	    	wait_ms(100);
 8000ac6:	2064      	movs	r0, #100	; 0x64
 8000ac8:	f7ff ffa6 	bl	8000a18 <wait_ms>
	    for (unsigned char i = 0; i < 11 ; i++)
 8000acc:	7ffb      	ldrb	r3, [r7, #31]
 8000ace:	3301      	adds	r3, #1
 8000ad0:	77fb      	strb	r3, [r7, #31]
 8000ad2:	7ffb      	ldrb	r3, [r7, #31]
 8000ad4:	2b0a      	cmp	r3, #10
 8000ad6:	d9e0      	bls.n	8000a9a <main+0x4a>
	    	/* wait for 1 second */
	    }

	    LCD_Clear_Screen();
 8000ad8:	f7ff fde2 	bl	80006a0 <LCD_Clear_Screen>

	    keypad_Init();
 8000adc:	f7ff fb48 	bl	8000170 <keypad_Init>


		LCD_Write_Str("Keypad is Ready");
 8000ae0:	4811      	ldr	r0, [pc, #68]	; (8000b28 <main+0xd8>)
 8000ae2:	f7ff fd9b 	bl	800061c <LCD_Write_Str>
		wait_ms(30);
 8000ae6:	201e      	movs	r0, #30
 8000ae8:	f7ff ff96 	bl	8000a18 <wait_ms>
		LCD_Clear_Screen();
 8000aec:	f7ff fdd8 	bl	80006a0 <LCD_Clear_Screen>

		unsigned char key_pressed;

	    while (1)
	    {
		    key_pressed = keypad_GetKey();
 8000af0:	f7ff fba4 	bl	800023c <keypad_GetKey>
 8000af4:	4603      	mov	r3, r0
 8000af6:	77bb      	strb	r3, [r7, #30]
		    switch(key_pressed)
 8000af8:	7fbb      	ldrb	r3, [r7, #30]
 8000afa:	2b3f      	cmp	r3, #63	; 0x3f
 8000afc:	d002      	beq.n	8000b04 <main+0xb4>
 8000afe:	2b41      	cmp	r3, #65	; 0x41
 8000b00:	d008      	beq.n	8000b14 <main+0xc4>
 8000b02:	e002      	b.n	8000b0a <main+0xba>
		    {
			    case 'A':
			    break; //do nothing if no key is pressed
			    case '?':
			    	LCD_Clear_Screen();
 8000b04:	f7ff fdcc 	bl	80006a0 <LCD_Clear_Screen>
			    break;
 8000b08:	e005      	b.n	8000b16 <main+0xc6>
			    default:
			    	LCD_Write_Char(key_pressed);//Send the Key preesed to LCD
 8000b0a:	7fbb      	ldrb	r3, [r7, #30]
 8000b0c:	4618      	mov	r0, r3
 8000b0e:	f7ff fd63 	bl	80005d8 <LCD_Write_Char>
			    break;
 8000b12:	e000      	b.n	8000b16 <main+0xc6>
			    break; //do nothing if no key is pressed
 8000b14:	bf00      	nop
		    key_pressed = keypad_GetKey();
 8000b16:	e7eb      	b.n	8000af0 <main+0xa0>
 8000b18:	08000be0 	.word	0x08000be0
 8000b1c:	08000c00 	.word	0x08000c00
 8000b20:	08000c0c 	.word	0x08000c0c
 8000b24:	40010c00 	.word	0x40010c00
 8000b28:	08000bf0 	.word	0x08000bf0

08000b2c <Reset_Handler>:

  .section .text.Reset_Handler
  .weak Reset_Handler
  .type Reset_Handler, %function
Reset_Handler:
  ldr   r0, =_estack
 8000b2c:	480d      	ldr	r0, [pc, #52]	; (8000b64 <LoopForever+0x2>)
  mov   sp, r0          /* set stack pointer */
 8000b2e:	4685      	mov	sp, r0
/* Call the clock system intitialization function.*/
  bl  SystemInit
 8000b30:	f3af 8000 	nop.w

/* Copy the data segment initializers from flash to SRAM */
  ldr r0, =_sdata
 8000b34:	480c      	ldr	r0, [pc, #48]	; (8000b68 <LoopForever+0x6>)
  ldr r1, =_edata
 8000b36:	490d      	ldr	r1, [pc, #52]	; (8000b6c <LoopForever+0xa>)
  ldr r2, =_sidata
 8000b38:	4a0d      	ldr	r2, [pc, #52]	; (8000b70 <LoopForever+0xe>)
  movs r3, #0
 8000b3a:	2300      	movs	r3, #0
  b LoopCopyDataInit
 8000b3c:	e002      	b.n	8000b44 <LoopCopyDataInit>

08000b3e <CopyDataInit>:

CopyDataInit:
  ldr r4, [r2, r3]
 8000b3e:	58d4      	ldr	r4, [r2, r3]
  str r4, [r0, r3]
 8000b40:	50c4      	str	r4, [r0, r3]
  adds r3, r3, #4
 8000b42:	3304      	adds	r3, #4

08000b44 <LoopCopyDataInit>:

LoopCopyDataInit:
  adds r4, r0, r3
 8000b44:	18c4      	adds	r4, r0, r3
  cmp r4, r1
 8000b46:	428c      	cmp	r4, r1
  bcc CopyDataInit
 8000b48:	d3f9      	bcc.n	8000b3e <CopyDataInit>

/* Zero fill the bss segment. */
  ldr r2, =_sbss
 8000b4a:	4a0a      	ldr	r2, [pc, #40]	; (8000b74 <LoopForever+0x12>)
  ldr r4, =_ebss
 8000b4c:	4c0a      	ldr	r4, [pc, #40]	; (8000b78 <LoopForever+0x16>)
  movs r3, #0
 8000b4e:	2300      	movs	r3, #0
  b LoopFillZerobss
 8000b50:	e001      	b.n	8000b56 <LoopFillZerobss>

08000b52 <FillZerobss>:

FillZerobss:
  str  r3, [r2]
 8000b52:	6013      	str	r3, [r2, #0]
  adds r2, r2, #4
 8000b54:	3204      	adds	r2, #4

08000b56 <LoopFillZerobss>:

LoopFillZerobss:
  cmp r2, r4
 8000b56:	42a2      	cmp	r2, r4
  bcc FillZerobss
 8000b58:	d3fb      	bcc.n	8000b52 <FillZerobss>

/* Call static constructors */
  bl __libc_init_array
 8000b5a:	f000 f811 	bl	8000b80 <__libc_init_array>
/* Call the application's entry point.*/
  bl main
 8000b5e:	f7ff ff77 	bl	8000a50 <main>

08000b62 <LoopForever>:

LoopForever:
    b LoopForever
 8000b62:	e7fe      	b.n	8000b62 <LoopForever>
  ldr   r0, =_estack
 8000b64:	20002800 	.word	0x20002800
  ldr r0, =_sdata
 8000b68:	20000000 	.word	0x20000000
  ldr r1, =_edata
 8000b6c:	20000020 	.word	0x20000020
  ldr r2, =_sidata
 8000b70:	08000c20 	.word	0x08000c20
  ldr r2, =_sbss
 8000b74:	20000020 	.word	0x20000020
  ldr r4, =_ebss
 8000b78:	20000040 	.word	0x20000040

08000b7c <ADC1_2_IRQHandler>:
 * @retval : None
*/
  .section .text.Default_Handler,"ax",%progbits
Default_Handler:
Infinite_Loop:
  b Infinite_Loop
 8000b7c:	e7fe      	b.n	8000b7c <ADC1_2_IRQHandler>
	...

08000b80 <__libc_init_array>:
 8000b80:	b570      	push	{r4, r5, r6, lr}
 8000b82:	2500      	movs	r5, #0
 8000b84:	4e0c      	ldr	r6, [pc, #48]	; (8000bb8 <__libc_init_array+0x38>)
 8000b86:	4c0d      	ldr	r4, [pc, #52]	; (8000bbc <__libc_init_array+0x3c>)
 8000b88:	1ba4      	subs	r4, r4, r6
 8000b8a:	10a4      	asrs	r4, r4, #2
 8000b8c:	42a5      	cmp	r5, r4
 8000b8e:	d109      	bne.n	8000ba4 <__libc_init_array+0x24>
 8000b90:	f000 f81a 	bl	8000bc8 <_init>
 8000b94:	2500      	movs	r5, #0
 8000b96:	4e0a      	ldr	r6, [pc, #40]	; (8000bc0 <__libc_init_array+0x40>)
 8000b98:	4c0a      	ldr	r4, [pc, #40]	; (8000bc4 <__libc_init_array+0x44>)
 8000b9a:	1ba4      	subs	r4, r4, r6
 8000b9c:	10a4      	asrs	r4, r4, #2
 8000b9e:	42a5      	cmp	r5, r4
 8000ba0:	d105      	bne.n	8000bae <__libc_init_array+0x2e>
 8000ba2:	bd70      	pop	{r4, r5, r6, pc}
 8000ba4:	f856 3025 	ldr.w	r3, [r6, r5, lsl #2]
 8000ba8:	4798      	blx	r3
 8000baa:	3501      	adds	r5, #1
 8000bac:	e7ee      	b.n	8000b8c <__libc_init_array+0xc>
 8000bae:	f856 3025 	ldr.w	r3, [r6, r5, lsl #2]
 8000bb2:	4798      	blx	r3
 8000bb4:	3501      	adds	r5, #1
 8000bb6:	e7f2      	b.n	8000b9e <__libc_init_array+0x1e>
 8000bb8:	08000c18 	.word	0x08000c18
 8000bbc:	08000c18 	.word	0x08000c18
 8000bc0:	08000c18 	.word	0x08000c18
 8000bc4:	08000c1c 	.word	0x08000c1c

08000bc8 <_init>:
 8000bc8:	b5f8      	push	{r3, r4, r5, r6, r7, lr}
 8000bca:	bf00      	nop
 8000bcc:	bcf8      	pop	{r3, r4, r5, r6, r7}
 8000bce:	bc08      	pop	{r3}
 8000bd0:	469e      	mov	lr, r3
 8000bd2:	4770      	bx	lr

08000bd4 <_fini>:
 8000bd4:	b5f8      	push	{r3, r4, r5, r6, r7, lr}
 8000bd6:	bf00      	nop
 8000bd8:	bcf8      	pop	{r3, r4, r5, r6, r7}
 8000bda:	bc08      	pop	{r3}
 8000bdc:	469e      	mov	lr, r3
 8000bde:	4770      	bx	lr
